(lp0
(lp1
S'Scan'
p2
aS'Type'
p3
aS'BCID'
p4
aS'sigma'
p5
aS'sigmaErr'
p6
aS'sigmaRatio'
p7
aS'sigmaRatio_Err'
p8
aS'Amp'
p9
aS'AmpErr'
p10
aS'Frac'
p11
aS'FracErr'
p12
aS'Mean'
p13
aS'MeanErr'
p14
aS'Const'
p15
aS'ConstErr'
p16
aS'CapSigma'
p17
aS'CapSigmaErr'
p18
aS'peak'
p19
aS'peakErr'
p20
aS'area'
p21
aS'areaErr'
p22
aS'fitStatus'
p23
aS'chi2'
p24
aS'ndof'
p25
aa(lp26
S'1'
p27
aS'X'
p28
ag27
aF0.1350825838038971
aF0.0003447251708093274
aF0.12657004228818636
aF8.425053895661712
aF0.0020430254251485773
aF8.572424257749685e-06
aF1.0
aF0.7153308635262967
aF-0.006029491009908033
aF0.000597010660480689
aF5.566947806057154e-06
aF5.570834825274759e-07
aF0.1350825838038971
aF0.0003447251708093274
aF0.0020430254251485773
aF8.572424257749685e-06
aF0.0006917721353786448
aF3.3973305992984806e-06
aI0
aF40.198867172199655
aI19
aa(lp29
g27
ag28
aS'51'
p30
aF0.12627339306511348
aF0.0006449718522341976
aF0.5555152197406921
aF0.16063791615647544
aF0.0026313603143804662
aF1.139866009262718e-05
aF0.9797705167038675
aF0.01916636777826808
aF-0.004682423358564393
aF0.0004623651430222989
aF1.9370534242990624e-06
aF2.272633339041597e-06
aF0.12627339306511348
aF0.0006449718522341976
aF0.0026313603143804662
aF1.139866009262718e-05
aF0.000832879370267198
aF5.578050893424844e-06
aI0
aF31.646604018767277
aI19
aa(lp31
g27
ag28
aS'91'
p32
aF0.12753236366912118
aF0.0006704643803390634
aF1.6656311007810893
aF0.46720456387349263
aF0.0025758537179808925
aF1.3577175043162333e-05
aF0.02858316734540095
aF0.033957229978720305
aF-0.0023107945346483427
aF0.000518841360088802
aF2.7940773809953524e-06
aF2.0040428106676833e-06
aF0.12753236366912118
aF0.0006704643803390634
aF0.0025758537179808925
aF1.3577175043162333e-05
aF0.0008234392022561301
aF6.130120858063677e-06
aI0
aF19.863926347254004
aI19
aa(lp33
g27
ag28
aS'131'
p34
aF0.1279718764146026
aF0.0007214766012576887
aF0.7430880192627023
aF0.1668337282694206
aF0.002574114659779645
aF1.827228284202861e-05
aF0.9089711642425471
aF0.16877159903992628
aF-0.0045253181999129624
aF0.0006151101074678983
aF5.093251977166813e-06
aF1.345459624136347e-06
aF0.1279718764146026
aF0.0007214766012576887
aF0.002574114659779645
aF1.827228284202861e-05
aF0.0008257191561317262
aF7.485080107388018e-06
aI0
aF12.38789042927137
aI19
aa(lp35
g27
ag28
aS'171'
p36
aF0.1282904034880485
aF0.0006656713415057362
aF0.7514784187494487
aF0.12963513826425005
aF0.0025257449347712495
aF1.569025717644188e-05
aF0.8791579255046647
aF0.1919537135437681
aF-0.00359150815314307
aF0.0005726449682792672
aF4.871184663109429e-06
aF1.1865407757788438e-06
aF0.1282904034880485
aF0.0006656713415057362
aF0.0025257449347712495
aF1.569025717644188e-05
aF0.0008122198440928515
aF6.5741686764682355e-06
aI0
aF28.09914300319016
aI19
aa(lp37
g27
ag28
aS'211'
p38
aF0.12719342097278338
aF0.0005117332117966534
aF0.29944798932562733
aF0.08761630632944534
aF0.0026189425632991404
aF1.3488498197662463e-05
aF0.9957872543298798
aF0.0019298839931229939
aF-0.0030773792686570184
aF0.0005235948730941844
aF2.364909379437563e-11
aF0.00012102544862919895
aF0.12719342097278338
aF0.0005117332117966534
aF0.0026189425632991404
aF1.3488498197662463e-05
aF0.0008349886194615828
aF5.4570768975115945e-06
aI0
aF20.283143087210643
aI19
aa(lp39
g27
ag28
aS'251'
p40
aF0.1259158436283673
aF0.0006069932361186486
aF0.8059267741723901
aF0.035948585132425326
aF0.0026246401849230458
aF1.7067036935508855e-05
aF0.6861757203214865
aF0.3143853941280662
aF-0.00382848199733787
aF0.0005566953039084048
aF5.800761202697235e-06
aF7.650287530747145e-07
aF0.1259158436283673
aF0.0006069932361186486
aF0.0026246401849230458
aF1.7067036935508855e-05
aF0.0008283999950392633
aF6.70556415473017e-06
aI0
aF20.50349227847878
aI19
aa(lp41
g27
ag28
aS'291'
p42
aF0.12731378229289125
aF0.0008702697770531544
aF0.22170679451683378
aF0.10177282540357101
aF0.0026445920621436733
aF1.4666536594503624e-05
aF0.9957074840304104
aF0.0016905086807113556
aF-0.003541527239469652
aF0.0005718813464648296
aF1.3432116530154303e-11
aF0.0001475632204866073
aF0.12731378229289125
aF0.0008702697770531544
aF0.0026445920621436733
aF1.4666536594503624e-05
aF0.0008439642389231673
aF7.42891741013605e-06
aI0
aF19.086124373273044
aI19
aa(lp43
g27
ag28
aS'771'
p44
aF0.12467219200175099
aF0.00051956915179762
aF0.7887871021273475
aF0.12346104772462729
aF0.002641485584553513
aF1.5363492922607037e-05
aF0.8776975896155035
aF0.210084614726345
aF-0.0036346180663054278
aF0.00046578084388928273
aF5.455091437358006e-06
aF7.429892185020771e-07
aF0.12467219200175099
aF0.00051956915179762
aF0.002641485584553513
aF1.5363492922607037e-05
aF0.0008254823169806354
aF5.906466614895799e-06
aI0
aF22.603161880440183
aI19
aa(lp45
g27
ag28
aS'811'
p46
aF0.1263094413158833
aF0.0005048518811463312
aF0.8071289773533086
aF0.030654051763531087
aF0.002586272674166179
aF1.3397970288621646e-05
aF0.6963216234259252
aF0.2598490636562853
aF-0.003972592221644143
aF0.0004779344669661779
aF3.6286508601085512e-06
aF6.023278812819497e-07
aF0.1263094413158833
aF0.0005048518811463312
aF0.002586272674166179
aF1.3397970288621646e-05
aF0.0008188419042367623
aF5.357772529298769e-06
aI0
aF21.629465695517624
aI19
aa(lp47
g27
ag28
aS'851'
p48
aF0.12652590534238015
aF0.0005533740287743356
aF0.7426560690299494
aF0.14310394345837413
aF0.0025729127498867765
aF1.555677578812635e-05
aF0.9222534101170305
aF0.12735155226671807
aF-0.004040704244119161
aF0.0005104850444280929
aF4.341007320091684e-06
aF8.87171247270224e-07
aF0.12652590534238015
aF0.0005533740287743356
aF0.0025729127498867765
aF1.555677578812635e-05
aF0.000816008056901878
aF6.0893536336376756e-06
aI0
aF22.549678457503976
aI19
aa(lp49
g27
ag28
aS'891'
p50
aF0.12428371216587573
aF0.0010939310146163381
aF4.479262640817436
aF2.372836482539726
aF0.002661055187344801
aF2.4545567586299524e-05
aF0.97093783012912
aF0.013204574956406034
aF-0.004196832759363271
aF0.0005297193938126677
aF6.724482229382156e-06
aF6.628995512383832e-07
aF0.12428371216587573
aF0.0010939310146163381
aF0.002661055187344801
aF2.4545567586299524e-05
aF0.000829006683946062
aF1.0569602055377191e-05
aI0
aF25.741179375774514
aI19
aa(lp51
g27
ag28
aS'931'
p52
aF0.12462572634961029
aF0.0005159220058950207
aF0.6027972824638217
aF0.2526400096630347
aF0.0026782306160170258
aF1.360555772283176e-05
aF0.9876534086746178
aF0.02167200453079704
aF-0.004459271707151205
aF0.0005051666122485473
aF2.867063710869644e-06
aF1.482442313833765e-06
aF0.12462572634961029
aF0.0005159220058950207
aF0.0026782306160170258
aF1.360555772283176e-05
aF0.0008366534515144045
aF5.482772132866393e-06
aI0
aF15.946899078920389
aI19
aa(lp53
g27
ag28
aS'971'
p54
aF0.12533055704991145
aF0.0007252697518866442
aF2.0754901904327547
aF1.0767705428696877
aF0.0026668898352246568
aF1.4147976902822903e-05
aF0.007580648268229406
aF0.007925477322991203
aF-0.0024662474765179184
aF0.0005356881510033092
aF3.288283814497084e-06
aF3.205501750911111e-06
aF0.12533055704991145
aF0.0007252697518866442
aF0.0026668898352246568
aF1.4147976902822903e-05
aF0.0008378224245951656
aF6.577371224679644e-06
aI0
aF20.612120591490974
aI19
aa(lp55
g27
ag28
aS'1011'
p56
aF0.12509451118461024
aF0.0006176167365343508
aF1.489281147220904
aF0.34915753927675386
aF0.0026677650863305155
aF1.6794543909088655e-05
aF0.046458220628902314
aF0.06577362170883652
aF-0.0023943652225311904
aF0.0005487545907776822
aF3.6863364169364976e-06
aF1.3306500395013352e-06
aF0.12509451118461024
aF0.0006176167365343508
aF0.0026677650863305155
aF1.6794543909088655e-05
aF0.0008365189297411126
aF6.692544660944045e-06
aI0
aF19.894026314500667
aI19
aa(lp57
g27
ag28
aS'1631'
p58
aF0.12303241531223766
aF0.0005088791426051984
aF0.6597206555548786
aF0.18983734867483265
aF0.0027326546110038917
aF1.5063336405280207e-05
aF0.9786074592793912
aF0.03391784173530954
aF-0.004097595082227093
aF0.0005317456827514132
aF4.7707504738481175e-06
aF1.070164012867969e-06
aF0.12303241531223766
aF0.0005088791426051984
aF0.0027326546110038917
aF1.5063336405280207e-05
aF0.0008427412022301275
aF5.807801425798019e-06
aI0
aF19.569759288722967
aI19
aa(lp59
g27
ag28
aS'1671'
p60
aF0.12198242319507081
aF0.0005551855515205105
aF1.3394298689731121
aF0.10809136252147944
aF0.0027857413180687658
aF1.6677322629609975e-05
aF0.17154759245950246
aF0.15159923444138867
aF-0.0041010246705145866
aF0.00045809282593344317
aF4.791560788977578e-06
aF8.754266779770205e-07
aF0.12198242319507081
aF0.0005551855515205105
aF0.0027857413180687658
aF1.6677322629609975e-05
aF0.0008517810547198101
aF6.405659996970049e-06
aI0
aF29.386637946932158
aI19
aa(lp61
g27
ag28
aS'1711'
p62
aF0.12253796841639306
aF0.0005879689738893969
aF0.7625353898043298
aF0.02139453090824317
aF0.002716079300332002
aF1.6380767266751303e-05
aF0.6780924150310852
aF0.17317473911140582
aF-0.003963773983759537
aF0.0005616806799971396
aF4.186196737285819e-06
aF7.961344900769831e-07
aF0.12253796841639306
aF0.0005879689738893969
aF0.002716079300332002
aF1.6380767266751303e-05
aF0.0008342631399850658
aF6.429602125927537e-06
aI0
aF30.7909901242739
aI19
aa(lp63
g27
ag28
aS'1751'
p64
aF0.12604227238629026
aF0.0008326582037887344
aF0.6806670706108036
aF0.2180897814786938
aF0.0026453606257089506
aF1.8183833834857456e-05
aF0.9499034603934456
aF0.09656724044964726
aF-0.0037485102853393134
aF0.0005939402091475498
aF4.900537473382372e-06
aF2.07882047388197e-06
aF0.12604227238629026
aF0.0008326582037887344
aF0.0026453606257089506
aF1.8183833834857456e-05
aF0.0008357782088428082
aF7.968064532563198e-06
aI0
aF23.523587313497753
aI19
aa(lp65
g27
ag28
aS'1791'
p66
aF0.12445328391945504
aF0.0006727352936676648
aF0.5453759833523585
aF0.30685889494644814
aF0.0026704566809252483
aF1.3398041631475146e-05
aF0.9904481080388308
aF0.016824254575379616
aF-0.004734236933954533
aF0.00046522608454995336
aF2.896709052169211e-06
aF2.2151117521207463e-06
aF0.12445328391945504
aF0.0006727352936676648
aF0.0026704566809252483
aF1.3398041631475146e-05
aF0.0008330706466393426
aF6.143936409447922e-06
aI0
aF28.810523387599545
aI19
aa(lp67
g27
ag28
aS'1831'
p68
aF0.12329428506763306
aF0.0005519479284838758
aF0.7120898829038198
aF0.05088571987145879
aF0.002742031378853993
aF1.5322816044373907e-05
aF0.8805219277102617
aF0.0744443728874492
aF-0.0041108494418680705
aF0.0005286082008373708
aF3.013639558923087e-06
aF7.854662511624921e-07
aF0.12329428506763306
aF0.0005519479284838758
aF0.002742031378853993
aF1.5322816044373907e-05
aF0.0008474328620888011
aF6.067745376097832e-06
aI0
aF39.391286434476534
aI19
aa(lp69
g27
ag28
aS'1871'
p70
aF0.12371552163096357
aF0.0011491798162835433
aF1.548250335744596
aF0.9731463622932681
aF0.00269097676646744
aF1.367361055910855e-05
aF0.037527938304510344
aF0.1169666049313478
aF-0.004068965892749575
aF0.0005558945408300014
aF5.5399755985119375e-06
aF3.5659832927695262e-06
aF0.12371552163096357
aF0.0011491798162835433
aF0.00269097676646744
aF1.367361055910855e-05
aF0.0008344956418891704
aF8.835527432073898e-06
aI0
aF8.854286422540728
aI19
aa(lp71
g27
ag28
aS'2211'
p72
aF0.12311379306310305
aF0.0005335760396862631
aF0.8058263075274371
aF0.06071413320453073
aF0.002730858930104903
aF1.6900810017380242e-05
aF0.803083495246719
aF0.22029394896105364
aF-0.003427854616447131
aF0.0004951469480319592
aF4.297307842522913e-06
aF5.917936793853331e-07
aF0.12311379306310305
aF0.0005335760396862631
aF0.002730858930104903
aF1.6900810017380242e-05
aF0.000842744471373545
aF6.367333560972334e-06
aI0
aF29.156143611801507
aI19
aa(lp73
g27
ag28
aS'2251'
p74
aF0.12324303868633632
aF0.0005642566374817535
aF1.4863346825992874
aF0.1802659535119686
aF0.002709231570647382
aF1.5094927392228334e-05
aF0.06817696036653859
aF0.05403788408449839
aF-0.0034086946069922896
aF0.0005936922808739516
aF3.768477815353499e-06
aF1.0705264634006118e-06
aF0.12324303868633632
aF0.0005642566374817535
aF0.002709231570647382
aF1.5094927392228334e-05
aF0.0008369479688529396
aF6.035621506006925e-06
aI0
aF21.026725056358135
aI19
aa(lp75
g27
ag28
aS'2291'
p76
aF0.1234995493546725
aF0.0006416641416998238
aF0.7355732098311764
aF0.07717019344313436
aF0.002719621518376928
aF1.88253910437604e-05
aF0.8697073655477683
aF0.13368663503214057
aF-0.004359278972296814
aF0.0005332268667745299
aF2.5712836288593888e-06
aF7.835452252211162e-07
aF0.1234995493546725
aF0.0006416641416998238
aF0.002719621518376928
aF1.88253910437604e-05
aF0.0008419063319055881
aF7.286748904759646e-06
aI0
aF40.65696056656587
aI19
aa(lp77
g27
ag28
aS'2331'
p78
aF0.12402193232071002
aF0.0006798678044188912
aF0.7755082034228843
aF0.0182167995006019
aF0.0026984708702286484
aF1.778497828438348e-05
aF0.6341446452375942
aF0.27614940917366404
aF-0.005732782315151968
aF0.0005727614217530223
aF4.158187548153336e-06
aF7.322485926203329e-07
aF0.12402193232071002
aF0.0006798678044188912
aF0.0026984708702286484
aF1.778497828438348e-05
aF0.0008388922109237108
aF7.1914475507568944e-06
aI0
aF21.627357807330412
aI19
aa(lp79
g27
ag28
aS'2371'
p80
aF0.12338806500357571
aF0.0005538569192139385
aF0.1003368099114762
aF9.826239626234678
aF0.0027191167394352697
aF1.2772387470590422e-05
aF0.9999996543281338
aF0.10045891410854768
aF-0.0025378946209790036
aF0.0004917419153860456
aF5.592911916491583e-06
aF9.169082763182955e-07
aF0.12338806500357571
aF0.0005538569192139385
aF0.0027191167394352697
aF1.2772387470590422e-05
aF0.0008409902120681441
aF5.464042213038137e-06
aI0
aF17.5782311019917
aI19
aa(lp81
g27
ag28
aS'2411'
p82
aF0.12329260185466973
aF0.0005548836888036392
aF1.3789814345136302
aF0.14568454200715064
aF0.0027171084635378884
aF1.621453111140688e-05
aF0.10645152371784677
aF0.09594107712865457
aF-0.003136842379865018
aF0.0005183206931853927
aF4.160552611372493e-06
aF9.001299058289391e-07
aF0.12329260185466973
aF0.0005548836888036392
aF0.0027171084635378884
aF1.621453111140688e-05
aF0.0008397188978160942
aF6.276401060557352e-06
aI0
aF31.213373909610816
aI19
aa(lp83
g27
ag28
aS'2451'
p84
aF0.12336292433179762
aF0.0006363634076000949
aF0.7661967180250194
aF0.07036351894469667
aF0.0027063320546610384
aF1.9132382121658364e-05
aF0.8390105619083472
aF0.17513652667585378
aF-0.004999383548611084
aF0.0005337096510866944
aF3.4315508297860785e-06
aF7.149179560214658e-07
aF0.12336292433179762
aF0.0006363634076000949
aF0.0027063320546610384
aF1.9132382121658364e-05
aF0.0008368655138280226
aF7.3237652833643695e-06
aI0
aF22.121357707020795
aI19
aa(lp85
g27
ag28
aS'2674'
p86
aF0.12021465827702935
aF0.0005810041755160425
aF0.6002257120601732
aF0.13753716475203093
aF0.002895298852056004
aF1.8244153793484184e-05
aF0.9795210692329888
aF0.020866473686434295
aF-0.005314262577840165
aF0.0005596893855484375
aF2.445314161379497e-06
aF1.23837256537751e-06
aF0.12021465827702935
aF0.0005810041755160425
aF0.002895298852056004
aF1.8244153793484184e-05
aF0.0008724504250578748
aF6.928423374605187e-06
aI0
aF25.20346978433027
aI19
aa(lp87
g27
ag28
aS'sum'
p88
aF0.1241333197671132
aF0.00011110214524616738
aF1.3592420645884908
aF0.04594606990192851
aF8.813496742667534e-05
aF1.092873958520932e-07
aF0.08422952023209263
aF0.02449010499398807
aF-0.0038051617787907277
aF9.730123195808463e-05
aF1.5647004285024303e-07
aF6.14917000679726e-09
aF0.1241333197671132
aF0.00011110214524616738
aF8.813496742667534e-05
aF1.092873958520932e-07
aF2.7423731782028252e-05
aF4.193829039428578e-08
aI0
aF76.83415132327508
aI19
aa(lp89
S'10'
p90
aS'Y'
p91
ag27
aF0.13218648413245426
aF0.0005866752878319503
aF3.3525049791296997
aF1.0168366293394244
aF0.002238346413934219
aF1.1988891789186003e-05
aF0.005328551347197674
aF0.0024113935162461964
aF-0.0054721343919845586
aF0.000563962648507982
aF2.5323965147094896e-13
aF2.0783488027264207e-05
aF0.13218648413245426
aF0.0005866752878319503
aF0.002238346413934219
aF1.1988891789186003e-05
aF0.0007416590250367179
aF5.158993324977646e-06
aI0
aF25.30715392642901
aI19
aa(lp92
S'10'
p93
ag91
aS'51'
p94
aF0.1127957386421116
aF0.0015530590874214107
aF2.7908300170582185
aF2.62712593157037
aF0.0027254086244128985
aF1.4769319886867409e-05
aF0.004813813504548015
aF0.0031537230374918956
aF-0.005182673535662259
aF0.0004614234579036798
aF2.0160079471681635e-06
aF7.093899354741473e-06
aF0.1127957386421116
aF0.0015530590874214107
aF0.0027254086244128985
aF1.4769319886867409e-05
aF0.0007705738248222291
aF1.1402045932407206e-05
aI0
aF21.071632259677653
aI19
aa(lp95
S'10'
p96
ag91
aS'91'
p97
aF0.11398965918832046
aF0.0006169088299307734
aF2.0147887442475607
aF0.6680878815259786
aF0.002677837344962102
aF1.7585912891146006e-05
aF0.011391542383794917
aF0.010406617295295545
aF-0.005477196383726183
aF0.0005175003266429673
aF2.388741702443742e-06
aF1.832621322440664e-06
aF0.11398965918832046
aF0.0006169088299307734
aF0.002677837344962102
aF1.7585912891146006e-05
aF0.0007651376685540466
aF6.511211462861487e-06
aI0
aF26.121296556303292
aI19
aa(lp98
S'10'
p99
ag91
aS'131'
p100
aF0.11456805801406066
aF0.0004863007218118863
aF3.3672140816641334
aF0.4996713846704395
aF0.0026871879982784588
aF1.5524200053916408e-05
aF0.006444537285703489
aF0.0016387095809939078
aF-0.006406274198194506
aF0.000528027039030446
aF3.397282455352979e-15
aF1.5158784143049497e-05
aF0.11456805801406066
aF0.0004863007218118863
aF0.0026871879982784588
aF1.5524200053916408e-05
aF0.000771705396007829
aF5.532223180102952e-06
aI0
aF7.4538941744348834
aI19
aa(lp101
S'10'
p102
ag91
aS'171'
p103
aF0.11302761451481606
aF0.0005243225197872135
aF1.6218472112266933
aF0.5139182015734386
aF0.002668737431858648
aF1.5540337271709127e-05
aF0.018596530761965935
aF0.028599422648877326
aF-0.00395602963514749
aF0.000511264031813305
aF4.809919023435194e-06
aF1.0844591245381951e-06
aF0.11302761451481606
aF0.0005243225197872135
aF0.002668737431858648
aF1.5540337271709127e-05
aF0.0007561019237816944
aF5.629169198471501e-06
aI0
aF17.037259690609392
aI19
aa(lp104
S'10'
p105
ag91
aS'211'
p106
aF0.11332830528765334
aF0.00040830766606948847
aF3.2237442001610193
aF0.5981766039465253
aF0.002721912862812558
aF1.4240754350148318e-05
aF0.004687543829888452
aF0.0017247746872796066
aF-0.005433789876986313
aF0.0004873586577368405
aF1.3222689609904137e-12
aF7.474715573692058e-06
aF0.11332830528765334
aF0.00040830766606948847
aF0.002721912862812558
aF1.4240754350148318e-05
aF0.000773219052071434
aF4.91182189940394e-06
aI0
aF16.382403650648588
aI19
aa(lp107
S'10'
p108
ag91
aS'251'
p109
aF0.11262825463132806
aF0.0005754541618259256
aF1.6514522024953473
aF0.6318657167975175
aF0.0027135622493643426
aF1.5205730548722984e-05
aF0.023466845082964427
aF0.04145586700878762
aF-0.005568325875533147
aF0.0004523028410210197
aF4.8322693405628005e-06
aF1.5722117345057242e-06
aF0.11262825463132806
aF0.0005754541618259256
aF0.0027135622493643426
aF1.5205730548722984e-05
aF0.0007660852082958838
aF5.809410142810494e-06
aI0
aF22.147741135512323
aI19
aa(lp110
S'10'
p111
ag91
aS'291'
p112
aF0.11085953882764643
aF0.0004895984502798854
aF0.6753374371437452
aF0.060077772008499564
aF0.002781067890112991
aF1.8185730445979733e-05
aF0.9389764376899092
aF0.037724822178554995
aF-0.005268798656342875
aF0.0005174274791227061
aF4.327057760082909e-06
aF6.314263702836277e-07
aF0.11085953882764643
aF0.0004895984502798854
aF0.002781067890112991
aF1.8185730445979733e-05
aF0.0007728133088226931
aF6.098105298359363e-06
aI0
aF31.909877499656236
aI19
aa(lp113
S'10'
p114
ag91
aS'771'
p115
aF0.1132939653597115
aF0.0003739756890959763
aF0.3009941368587051
aF0.037811573404154
aF0.002741776072371748
aF1.3031820176697979e-05
aF0.994969404300813
aF0.0011903833977406908
aF-0.005003847232383317
aF0.00047563400621200563
aF1.006441541218095e-11
aF3.1670262927774306e-05
aF0.1132939653597115
aF0.0003739756890959763
aF0.002741776072371748
aF1.3031820176697979e-05
aF0.0007786256273835023
aF4.505794991816099e-06
aI0
aF26.898535951591644
aI19
aa(lp116
S'10'
p117
ag91
aS'811'
p118
aF0.11347760005855875
aF0.0007403909489277762
aF0.44896706230672256
aF0.16270732191386075
aF0.0027161748545368072
aF1.3971627272140038e-05
aF0.988880784612502
aF0.008316783078421264
aF-0.00470037482683712
aF0.0004735447957004664
aF1.3216751199357502e-06
aF2.661569965343169e-06
aF0.11347760005855875
aF0.0007403909489277762
aF0.0027161748545368072
aF1.3971627272140038e-05
aF0.0007726055095541457
aF6.419098447467384e-06
aI0
aF17.239799941333825
aI19
aa(lp119
S'10'
p120
ag91
aS'851'
p121
aF0.11292977373987538
aF0.00048715730477836563
aF0.701122460615166
aF0.1317848779200706
aF0.0026883762807422135
aF1.4570169795013977e-05
aF0.9463492452032217
aF0.07238962943067029
aF-0.004940319000062155
aF0.00046127567516181586
aF4.314751640029924e-06
aF7.934601328690729e-07
aF0.11292977373987538
aF0.00048715730477836563
aF0.0026883762807422135
aF1.4570169795013977e-05
aF0.000761006641879053
aF5.271419453219017e-06
aI0
aF19.233525143835507
aI19
aa(lp122
S'10'
p123
ag91
aS'891'
p124
aF0.1130041316443631
aF0.0006042460325516323
aF0.6017623580845451
aF0.21281730061366771
aF0.002732462481726834
aF1.6264888471608126e-05
aF0.9803298807386167
aF0.03291094059214783
aF-0.004076333795892531
aF0.0004981915118347184
aF3.0459438487662194e-06
aF1.1534799879464596e-06
aF0.1130041316443631
aF0.0006042460325516323
aF0.002732462481726834
aF1.6264888471608126e-05
aF0.0007739955506536813
aF6.19310006095679e-06
aI0
aF35.43645665325275
aI19
aa(lp125
S'10'
p126
ag91
aS'931'
p127
aF0.11262959285661577
aF0.0003640638808107513
aF0.3294790428663995
aF0.038114339121692875
aF0.0027590432460541303
aF1.3360751769840844e-05
aF0.9942865121271038
aF0.0014862834140685344
aF-0.0048184575291773625
aF0.0004729165573341318
aF2.5378588119906454e-14
aF4.5254676087191915e-06
aF0.11262959285661577
aF0.0003640638808107513
aF0.0027590432460541303
aF1.3360751769840844e-05
aF0.0007789345294867779
aF4.535146074345908e-06
aI0
aF34.53652415428405
aI19
aa(lp128
S'10'
p129
ag91
aS'971'
p130
aF0.11278322544941757
aF0.0004174995218448726
aF0.5601641744200407
aF0.11057520948598498
aF0.0027301021969001514
aF1.3921365122837419e-05
aF0.9865814797518278
aF0.00966260724807999
aF-0.004685274777377261
aF0.0004829578759096733
aF4.727846370833344e-06
aF1.163511759740554e-06
aF0.11278322544941757
aF0.0004174995218448726
aF0.0027301021969001514
aF1.3921365122837419e-05
aF0.000771815239194773
aF4.863365472899995e-06
aI0
aF30.67413567875323
aI19
aa(lp131
S'10'
p132
ag91
aS'1011'
p133
aF0.11330647272758256
aF0.00041854762912907996
aF0.3601034065317774
aF0.03980214264139956
aF0.0027719609195233415
aF1.4432843604751796e-05
aF0.9909934892036294
aF0.0024302133431335915
aF-0.00550919805230247
aF0.0004915618605666382
aF2.024796996735745e-13
aF1.994799094280825e-05
aF0.11330647272758256
aF0.00041854762912907996
aF0.0027719609195233415
aF1.4432843604751796e-05
aF0.0007872846017069296
aF5.026010275619096e-06
aI0
aF20.791368241088247
aI19
aa(lp134
S'10'
p135
ag91
aS'1631'
p136
aF0.10987626781604912
aF0.0004795831680899524
aF1.3850760628688106
aF0.18360958537209549
aF0.00283682085802982
aF1.8258568737249082e-05
aF0.057519895587326675
aF0.06257657484315701
aF-0.005708037746388363
aF0.0005349376021280159
aF4.198748979908351e-06
aF6.070478664785273e-07
aF0.10987626781604912
aF0.0004795831680899524
aF0.00283682085802982
aF1.8258568737249082e-05
aF0.0007813142493430218
aF6.076032297486878e-06
aI0
aF36.572489216621165
aI19
aa(lp137
S'10'
p138
ag91
aS'1671'
p139
aF0.11139912084919576
aF0.0006654896928374686
aF0.4597204779000721
aF0.14340469090660468
aF0.002809418210444
aF1.6686100495162236e-05
aF0.9880999928860379
aF0.008454044945622519
aF-0.0058369321346736685
aF0.00047955238860146444
aF1.96875478048697e-06
aF2.2266393343553517e-06
aF0.11139912084919576
aF0.0006654896928374686
aF0.002809418210444
aF1.6686100495162236e-05
aF0.0007844912262151357
aF6.608543655618256e-06
aI0
aF12.873467564405404
aI19
aa(lp140
S'10'
p141
ag91
aS'1711'
p142
aF0.11095699498960132
aF0.00047553348970462114
aF1.7165219558452045
aF0.3562414359113516
aF0.0028304753130007814
aF1.636400959922229e-05
aF0.020701280914614317
aF0.018747957236589063
aF-0.004967718097447608
aF0.00043734670620744324
aF3.1072357474198897e-06
aF1.0118332537073505e-06
aF0.11095699498960132
aF0.00047553348970462114
aF0.0028304753130007814
aF1.636400959922229e-05
aF0.000787234270598735
aF5.665450764518116e-06
aI0
aF29.745999507297928
aI19
aa(lp143
S'10'
p144
ag91
aS'1751'
p145
aF0.11173290041518633
aF0.0017942971064009963
aF2.6040250329890933
aF2.966072986725464
aF0.002780094739725551
aF1.449055920207205e-05
aF0.005473836715843006
aF0.006409200680347671
aF-0.004678024965013099
aF0.0005115448191287235
aF3.992162698382984e-06
aF8.431623639635899e-06
aF0.11173290041518633
aF0.0017942971064009963
aF0.002780094739725551
aF1.449055920207205e-05
aF0.0007786290497612115
aF1.3145990610483208e-05
aI0
aF14.913716374812557
aI19
aa(lp146
S'10'
p147
ag91
aS'1791'
p148
aF0.11062719814344393
aF0.0004182143595475381
aF0.6848758291834147
aF0.1158038059809221
aF0.0027940015023812698
aF1.549552887250582e-05
aF0.9648897484688868
aF0.04051954582471984
aF-0.00533465836571412
aF0.0004542174405558382
aF3.8011050102443322e-06
aF6.20447307301819e-07
aF0.11062719814344393
aF0.0004182143595475381
aF0.0027940015023812698
aF1.549552887250582e-05
aF0.0007747801449021415
aF5.2002397526378565e-06
aI0
aF26.195394276689793
aI19
aa(lp149
S'10'
p150
ag91
aS'1831'
p151
aF0.11128464544106045
aF0.0005384134354700055
aF0.529168729991943
aF0.2136641495325602
aF0.0028018511069639197
aF1.757169666945853e-05
aF0.9895537780528462
aF0.013527040579808969
aF-0.006113366784794414
aF0.00044353498292570723
aF4.560255878173214e-06
aF1.6654314405237237e-06
aF0.11128464544106045
aF0.0005384134354700055
aF0.0028018511069639197
aF1.757169666945853e-05
aF0.0007815742335040875
aF6.190691844828086e-06
aI0
aF13.268304177050348
aI19
aa(lp152
S'10'
p153
ag91
aS'1871'
p154
aF0.11233591073096214
aF0.0004156991518666276
aF0.33876774084372663
aF0.03485779157060506
aF0.002783352682020099
aF1.4456781543859291e-05
aF0.992552815788322
aF0.0017506226891643717
aF-0.005785877601454921
aF0.000513153219880486
aF7.560618797697317e-16
aF6.783650001136177e-06
aF0.11233591073096214
aF0.0004156991518666276
aF0.002783352682020099
aF1.4456781543859291e-05
aF0.0007837486117178945
aF4.998296283056724e-06
aI0
aF24.051540334428584
aI19
aa(lp155
S'10'
p156
ag91
aS'2211'
p157
aF0.11185541247363717
aF0.0004448288152790204
aF0.22675793951412837
aF0.05784534467338823
aF0.002804336584823358
aF1.538232499195065e-05
aF0.9966899510361751
aF0.0009176652835880539
aF-0.004985248531480506
aF0.00043673430421552976
aF2.034853230359346e-11
aF5.340906902973092e-05
aF0.11185541247363717
aF0.0004448288152790204
aF0.002804336584823358
aF1.538232499195065e-05
aF0.0007862797222061529
aF5.327149756609517e-06
aI0
aF24.304363734730796
aI19
aa(lp158
S'10'
p159
ag91
aS'2251'
p160
aF0.11093374357320296
aF0.0005572971380091489
aF0.8109414393573898
aF0.018651431894184445
aF0.0028227991296758564
aF1.9811491808804623e-05
aF0.6044221162700258
aF0.37881242482657607
aF-0.00474426334166009
aF0.00045130021631555983
aF5.114956250717451e-06
aF6.198916819702415e-07
aF0.11093374357320296
aF0.0005572971380091489
aF0.0028227991296758564
aF1.9811491808804623e-05
aF0.000784934789300907
aF6.774820735018478e-06
aI0
aF24.397906752908995
aI19
aa(lp161
S'10'
p162
ag91
aS'2291'
p163
aF0.11107466027555314
aF0.000544326703754448
aF1.9856421248303286
aF0.5557767411062596
aF0.0027940818183758162
aF1.688834771131553e-05
aF0.012417770046359244
aF0.009532368622088477
aF-0.00592551285646136
aF0.000474029586131963
aF3.6316099502009535e-06
aF1.7870986698337309e-06
aF0.11107466027555314
aF0.000544326703754448
aF0.0027940818183758162
aF1.688834771131553e-05
aF0.0007779363181207679
aF6.05338812148486e-06
aI0
aF34.80976450322719
aI19
aa(lp164
S'10'
p165
ag91
aS'2331'
p166
aF0.111863910549949
aF0.0010897324346664714
aF2.577538576025321
aF1.9231491299446724
aF0.002769704466607653
aF1.5163745290090389e-05
aF0.005438212133715592
aF0.004422885345560873
aF-0.0048157157549914165
aF0.0004666842650293822
aF1.8665444917037588e-06
aF4.981923672779665e-06
aF0.111863910549949
aF0.0010897324346664714
aF0.002769704466607653
aF1.5163745290090389e-05
aF0.0007766285699039685
aF8.678548410188339e-06
aI0
aF24.522449636066522
aI19
aa(lp167
S'10'
p168
ag91
aS'2371'
p169
aF0.11171115349132633
aF0.0004013547646378741
aF0.2774354921237428
aF0.04823132134084336
aF0.002811809428028829
aF1.4997846408675236e-05
aF0.9966522979275506
aF0.0009868917372299335
aF-0.005828023513447675
aF0.0005293809281495891
aF2.0884793894282438e-13
aF1.7412922992222076e-05
aF0.11171115349132633
aF0.0004013547646378741
aF0.002811809428028829
aF1.4997846408675236e-05
aF0.0007873581969973593
aF5.06353906630752e-06
aI0
aF37.393838001736746
aI19
aa(lp170
S'10'
p171
ag91
aS'2411'
p172
aF0.1111630369231235
aF0.0005558049369405876
aF1.1957281394525574
aF0.048041140697442364
aF0.002777394850906433
aF1.64509459577094e-05
aF0.4724610712566327
aF0.7306346427028496
aF-0.004875526019837724
aF0.00043582007401434355
aF5.345393368346718e-06
aF6.73415413094958e-07
aF0.1111630369231235
aF0.0005558049369405876
aF0.002777394850906433
aF1.64509459577094e-05
aF0.000773905553582172
aF5.998784909333811e-06
aI0
aF20.880293584939643
aI19
aa(lp173
S'10'
p174
ag91
aS'2451'
p175
aF0.11036577404295692
aF0.00045979579490662087
aF0.6033219084228455
aF0.10914824434380122
aF0.002838476035096991
aF1.599623978236291e-05
aF0.9760556666466083
aF0.020058501257131822
aF-0.006547324124421448
aF0.0005126734627010516
aF4.386837650461328e-06
aF1.0610270021779722e-06
aF0.11036577404295692
aF0.00045979579490662087
aF0.002838476035096991
aF1.599623978236291e-05
aF0.0007852529553915331
aF5.503236965610191e-06
aI0
aF33.12479239265823
aI19
aa(lp176
S'10'
p177
ag91
aS'2674'
p178
aF0.10853273271366239
aF0.00042470694977632926
aF1.482855821882416
aF0.36018321352106974
aF0.0029619378976280153
aF1.5270086873567972e-05
aF0.0188900341121524
aF0.0289392651530421
aF-0.005826514300398758
aF0.0005120921292279907
aF4.724728189467453e-06
aF7.068538196369767e-07
aF0.10853273271366239
aF0.00042470694977632926
aF0.0029619378976280153
aF1.5270086873567972e-05
aF0.0008057988083746212
aF5.215419309058452e-06
aI0
aF14.941842941192498
aI19
aa(lp179
S'10'
p180
ag91
aS'sum'
p181
aF0.11145652601944583
aF0.00010086047759739332
aF0.6081612113667735
aF0.026590818249533854
aF9.147355264202522e-05
aF1.1233003177355195e-07
aF0.9748570995797006
aF0.005359751826480297
aF-0.005193192304927504
aF9.951583318128963e-05
aF1.473941033414139e-07
aF6.7103485232311545e-09
aF0.11145652601944583
aF0.00010086047759739332
aF9.147355264202522e-05
aF1.1233003177355195e-07
aF2.5555888410418828e-05
aF3.898339464225172e-08
aI0
aF61.24366901447156
aI19
aa(lp182
S'2'
p183
ag91
ag27
aF0.1379968442048435
aF0.00042646039725850493
aF0.9999996436111297
aF0.09177534572379903
aF0.002073226911658934
aF1.0398024791777576e-05
aF0.5175695266440117
aF0.7393741354168296
aF-0.006989803248512799
aF0.0005633309226499468
aF4.507989590539774e-06
aF5.148462622722728e-07
aF0.1379968442048435
aF0.00042646039725850493
aF0.002073226911658934
aF1.0398024791777576e-05
aF0.000717143269050355
aF4.224722703000445e-06
aI0
aF19.179027170244538
aI19
aa(lp184
g183
ag91
aS'51'
p185
aF0.1169573076381907
aF0.00038532440523684174
aF3.462703342219411
aF0.6235244109081517
aF0.00267088850175906
aF1.4166305406958755e-05
aF0.0032165611208185285
aF0.0010379438903090066
aF-0.00717346394294579
aF0.0004621554617147691
aF4.3909320623924946e-15
aF2.5582947782160083e-06
aF0.1169573076381907
aF0.00038532440523684174
aF0.00267088850175906
aF1.4166305406958755e-05
aF0.0007830203603719581
aF4.889100493397876e-06
aI0
aF40.62106283609417
aI19
aa(lp186
g183
ag91
aS'91'
p187
aF0.11858025568852038
aF0.0004623357426264797
aF0.25507342311815384
aF0.0679140848267541
aF0.0025948091532769467
aF1.4753782000184821e-05
aF0.9969916491098114
aF0.0010488375953978113
aF-0.006761501676274424
aF0.0005316403829479467
aF1.5880513570820654e-12
aF0.0001262262426412772
aF0.11858025568852038
aF0.0004623357426264797
aF0.0025948091532769467
aF1.4753782000184821e-05
aF0.0007712723067328924
aF5.317356198142508e-06
aI0
aF18.002667131588918
aI19
aa(lp188
g183
ag91
aS'131'
p189
aF0.11765686672194493
aF0.0035199821644565673
aF0.30227964258165996
aF1.1676687948401996
aF0.00258638500042815
aF1.883186834360207e-05
aF0.9979489637326604
aF0.003026115399379803
aF-0.007682324187956676
aF0.0005557923813444803
aF3.6552403164119565e-06
aF1.4985748818312773e-05
aF0.11765686672194493
aF0.0035199821644565673
aF0.00258638500042815
aF1.883186834360207e-05
aF0.0007627819116610221
aF2.348654055876634e-05
aI0
aF16.043885276146085
aI19
aa(lp190
g183
ag91
aS'171'
p191
aF0.11777928937083
aF0.0006160409268846218
aF1.2407747305226742
aF0.3267386304105963
aF0.0025372640889590025
aF1.7586028337865465e-05
aF0.8882971268391608
aF0.21882134323988262
aF-0.007200175708829216
aF0.0005728274880576955
aF4.627059070473338e-06
aF5.523135694984748e-07
aF0.11777928937083
aF0.0006160409268846218
aF0.0025372640889590025
aF1.7586028337865465e-05
aF0.000749073678134629
aF6.504355532590445e-06
aI0
aF27.53273340474363
aI19
aa(lp192
g183
ag91
aS'211'
p193
aF0.11640821920359697
aF0.005222158575413698
aF0.10000001749842016
aF5.069602953646893
aF0.0026365476891255426
aF1.920062201862891e-05
aF0.9996805551316825
aF0.01937580839455133
aF-0.0066328621423512495
aF0.00046399213546766436
aF3.436623028431063e-06
aF1.1948247810098511e-05
aF0.11640821920359697
aF0.005222158575413698
aF0.0026365476891255426
aF1.920062201862891e-05
aF0.000769323875693575
aF3.496422877626527e-05
aI4
aF33.34254752589845
aI19
aa(lp194
g183
ag91
aS'251'
p195
aF0.1163949262193775
aF0.0004709704801955481
aF1.6192651773966449
aF0.4512791201620966
aF0.0026558953005956054
aF1.3847647136594953e-05
aF0.019425143182089488
aF0.026525114356587
aF-0.006225948475975691
aF0.0004760218092622484
aF3.4595464427922276e-06
aF9.51823848709399e-07
aF0.1163949262193775
aF0.0004709704801955481
aF0.0026558953005956054
aF1.3847647136594953e-05
aF0.0007748808605800177
aF5.1140790972197785e-06
aI0
aF28.0081357444669
aI19
aa(lp196
g183
ag91
aS'291'
p197
aF0.11595360862380392
aF0.0005140128661158506
aF0.7224884138469246
aF0.15147748003882439
aF0.0026276093129380842
aF1.8030693056454066e-05
aF0.9639336255893256
aF0.057758630497938834
aF-0.007009459513307543
aF0.000571836318484867
aF3.99575628628357e-06
aF7.123248783774683e-07
aF0.11595360862380392
aF0.0005140128661158506
aF0.0026276093129380842
aF1.8030693056454066e-05
aF0.0007637214626188585
aF6.239095164010361e-06
aI0
aF18.149197123110394
aI19
aa(lp198
g183
ag91
aS'771'
p199
aF0.11646711611152388
aF2.5901800514631936e-06
aF1.0000000919609318
aF0.45270092909294335
aF0.0026421189919622924
aF9.421850920678446e-08
aF0.9999024105159156
aF0.7137246554650216
aF-0.006448536781878082
aF4.477303174466526e-06
aF4.698499001424828e-06
aF4.048846798665496e-09
aF0.11646711611152388
aF2.5901800514631936e-06
aF0.0026421189919622924
aF9.421850920678446e-08
aF0.0007713396010763607
aF3.241691178405407e-08
aI0
aF30.730773321165888
aI19
aa(lp200
g183
ag91
aS'811'
p201
aF0.11732947624680823
aF0.00039179033371823484
aF0.7180345627570254
aF0.090693444346224
aF0.002625743339978108
aF1.1041131496744095e-05
aF0.9487521881606226
aF0.05034854288472662
aF-0.007562686310467386
aF0.0004580227996797931
aF2.466224487318036e-06
aF5.562247651813568e-07
aF0.11732947624680823
aF0.00039179033371823484
aF0.002625743339978108
aF1.1041131496744095e-05
aF0.0007722347466610358
aF4.146556374471322e-06
aI0
aF43.81607807426891
aI19
aa(lp202
g183
ag91
aS'851'
p203
aF0.11788459168976065
aF0.000581091393090177
aF4.843233446084873
aF1.6933388739799626
aF0.002624694022869905
aF1.266739349363227e-05
aF0.0032591885464070547
aF0.0009535883319446159
aF-0.006800751256713127
aF0.0004682748096917613
aF4.822819921201927e-13
aF0.00025964336770717666
aF0.11788459168976065
aF0.000581091393090177
aF0.002624694022869905
aF1.266739349363227e-05
aF0.0007755783189619099
aF5.350410973117903e-06
aI0
aF38.97054134580978
aI19
aa(lp204
g183
ag91
aS'891'
p205
aF0.11640252561369757
aF0.0003762685294750693
aF0.1970154910864702
aF6.517937620185718
aF0.002643518174240504
aF1.507508197244622e-05
aF1.368904989362818e-13
aF0.003616096980604777
aF-0.0072364665541409705
aF0.0004958846184897077
aF4.357925505611981e-06
aF4.2147295684941126e-07
aF0.11640252561369757
aF0.0003762685294750693
aF0.002643518174240504
aF1.507508197244622e-05
aF0.0007713200808840622
aF5.05607381481063e-06
aI0
aF22.844763554496875
aI19
aa(lp206
g183
ag91
aS'931'
p207
aF0.11508826978402845
aF0.0003586891285618511
aF0.999972683608347
aF0.2913467268595059
aF0.002715510147577192
aF1.4309875086198926e-05
aF0.010688822176256385
aF0.7319797996262993
aF-0.008669563844609027
aF0.00044221129701927574
aF4.214605781559522e-06
aF4.265578136011804e-07
aF0.11508826978402845
aF0.0003586891285618511
aF0.002715510147577192
aF1.4309875086198926e-05
aF0.0007833799018523593
aF4.79611616814161e-06
aI0
aF21.578458954757526
aI19
aa(lp208
g183
ag91
aS'971'
p209
aF0.11470689639298502
aF0.0005242459412229961
aF1.2229782150490787
aF0.24261778652204208
aF0.0027100072223760793
aF1.6489443528908002e-05
aF0.09140033285412263
aF0.21372917357281165
aF-0.007460951976024895
aF0.0005236253799620894
aF4.399139812593656e-06
aF5.638343969702198e-07
aF0.11470689639298502
aF0.0005242459412229961
aF0.0027100072223760793
aF1.6489443528908002e-05
aF0.0007792017365733634
aF5.929652506406157e-06
aI0
aF35.621749415833975
aI19
aa(lp210
g183
ag91
aS'1011'
p211
aF0.11530812664851117
aF0.0005434122887337279
aF0.8398960889800015
aF0.5659760908229318
aF0.0026869564252140275
aF1.652734468364503e-05
aF0.9384917823608956
aF0.8181838891274786
aF-0.0066538206643983995
aF0.0005087992428442886
aF5.241736182668433e-06
aF6.85759319541679e-07
aF0.11530812664851117
aF0.0005434122887337279
aF0.0026869564252140275
aF1.652734468364503e-05
aF0.0007766234039316361
aF6.017891698841406e-06
aI0
aF16.875686837270496
aI19
aa(lp212
g183
ag91
aS'1631'
p213
aF0.11385895115861117
aF0.0003496497324951311
aF0.10018816223907616
aF7.017650951294819
aF0.0027548589745383456
aF1.2766264926063068e-05
aF0.9999999999514613
aF0.0016510609915960095
aF-0.007104545437815763
aF0.00048638824630667333
aF4.128800738402716e-06
aF4.3698321709112487e-07
aF0.11385895115861117
aF0.0003496497324951311
aF0.0027548589745383456
aF1.2766264926063068e-05
aF0.0007862424436818271
aF4.370916404983938e-06
aI0
aF32.039807501841096
aI19
aa(lp214
g183
ag91
aS'1671'
p215
aF0.1142077448498788
aF0.00047462295401742627
aF0.7375655378488496
aF0.1638859600591302
aF0.002762698413390106
aF1.5188941834314712e-05
aF0.9530473984369108
aF0.08730944361875781
aF-0.008594700712437762
aF0.0005185947315616594
aF3.898823522570094e-06
aF6.617187389784672e-07
aF0.1142077448498788
aF0.00047462295401742627
aF0.002762698413390106
aF1.5188941834314712e-05
aF0.0007908952522558677
aF5.450701413300759e-06
aI0
aF27.098940719290194
aI19
aa(lp216
g183
ag91
aS'1711'
p217
aF0.11369905133655275
aF0.0004583688315485627
aF0.7012963454336544
aF0.12110432274785998
aF0.002725869442056603
aF1.4918483625184654e-05
aF0.95750380177608
aF0.05229193389548348
aF-0.007127438907040107
aF0.000521773573896193
aF3.911286180377504e-06
aF7.407578419585391e-07
aF0.11369905133655275
aF0.0004583688315485627
aF0.002725869442056603
aF1.4918483625184654e-05
aF0.0007768762170739851
aF5.280775047536785e-06
aI0
aF37.98708759934826
aI19
aa(lp218
g183
ag91
aS'1751'
p219
aF0.1160067754829903
aF0.0023174918772470377
aF4.863918932638502
aF3.4376386451270133
aF0.0026827175810893605
aF1.818338247626893e-05
aF0.0030002229640670453
aF0.0025790293215444127
aF-0.006341713201513987
aF0.0005847268822953628
aF3.4736958933023756e-07
aF3.7194034918585916e-05
aF0.1160067754829903
aF0.0023174918772470377
aF0.0026827175810893605
aF1.818338247626893e-05
aF0.000780096348275114
aF1.6456702758179208e-05
aI0
aF23.475355237606305
aI19
aa(lp220
g183
ag91
aS'1791'
p221
aF0.11525410391533245
aF1.3497779856975116e-05
aF1.0000644691404532
aF8.888053997576055
aF0.0027142793759537542
aF5.026617751061665e-07
aF2.0876918118695187e-06
aF0.6307114475626896
aF-0.007026268568135983
aF2.2724969003733662e-05
aF4.269328261545802e-06
aF1.982353850904504e-08
aF0.11525410391533245
aF1.3497779856975116e-05
aF0.0027142793759537542
aF5.026617751061665e-07
aF0.000784153128459167
aF1.7181981614628143e-07
aI0
aF43.40555532566675
aI19
aa(lp222
g183
ag91
aS'1831'
p223
aF0.11497045403380964
aF0.0005740972071257855
aF0.5158793673606151
aF0.2071446366107229
aF0.0027517797135387365
aF1.6347048506289586e-05
aF0.990002995588894
aF0.012034833270155532
aF-0.006977410335766792
aF0.0005092247384217939
aF3.3664185756349107e-06
aF1.800732520316484e-06
aF0.11497045403380964
aF0.0005740972071257855
aF0.0027517797135387365
aF1.6347048506289586e-05
aF0.0007930304172027764
aF6.15426070163503e-06
aI0
aF16.075943019673883
aI19
aa(lp224
g183
ag91
aS'1871'
p225
aF0.11456164274545796
aF0.00048188646288425756
aF1.336752488880938
aF0.338431206225542
aF0.002697949588893184
aF1.6978370007115834e-05
aF0.05372714651841737
aF0.11440085164541208
aF-0.007465325180753261
aF0.00046872206950818434
aF4.37401352168132e-06
aF7.008481474610193e-07
aF0.11456164274545796
aF0.00048188646288425756
aF0.002697949588893184
aF1.6978370007115834e-05
aF0.0007747525196803535
aF5.864423404665234e-06
aI0
aF14.103443913606156
aI19
aa(lp226
g183
ag91
aS'2211'
p227
aF0.11497035008587818
aF5.0993882514079445e-05
aF0.9999998384854943
aF1.4621266080575015
aF0.0027525744027402555
aF2.2132013969950425e-06
aF0.9898750134584898
aF0.9737516836057565
aF-0.006913483163150119
aF8.954108918874186e-05
aF3.3852038981951883e-06
aF5.939184411690714e-08
aF0.11497035008587818
aF5.0993882514079445e-05
aF0.0027525744027402555
aF2.2132013969950425e-06
aF0.0007932587200384833
aF7.284258110682136e-07
aI0
aF57.57316151720824
aI19
aa(lp228
g183
ag91
aS'2251'
p229
aF0.11563588557547634
aF0.0004287685876153684
aF0.3199131690724615
aF0.046366211777425226
aF0.0027195115482897907
aF1.573483998733153e-05
aF0.9952068112641844
aF0.0014461190241167876
aF-0.007752128111719451
aF0.0004935057913729063
aF1.027794516161862e-12
aF3.97948832251832e-06
aF0.11563588557547634
aF0.0004287685876153684
aF0.0027195115482897907
aF1.573483998733153e-05
aF0.000788267229792712
aF5.417029814963459e-06
aI0
aF21.583724639732903
aI19
aa(lp230
g183
ag91
aS'2291'
p231
aF0.11462121476039712
aF0.0007601462702871086
aF2.088041584231697
aF2.8686039982923264
aF0.0027335076480253986
aF1.5689287267955238e-05
aF0.003213428653507877
aF0.010933091205469314
aF-0.006512303285467201
aF0.0004983483842283586
aF4.288545428532964e-06
aF2.982136555211845e-06
aF0.11462121476039712
aF0.0007601462702871086
aF0.0027335076480253986
aF1.5689287267955238e-05
aF0.0007853716754670208
aF6.8882122331661686e-06
aI0
aF17.0623065315151
aI19
aa(lp232
g183
ag91
aS'2331'
p233
aF0.1150670305315789
aF0.00047671043282296067
aF0.6693252976840431
aF0.13514168259469805
aF0.0026736085603146723
aF1.597754246947616e-05
aF0.9703316645253918
aF0.03669117926263532
aF-0.007186662682170226
aF0.0005053708138715289
aF3.4270868856672853e-06
aF7.730929102739427e-07
aF0.1150670305315789
aF0.00047671043282296067
aF0.0026736085603146723
aF1.597754246947616e-05
aF0.0007711496448299599
aF5.607504088167023e-06
aI0
aF33.983810049967325
aI19
aa(lp234
g183
ag91
aS'2371'
p235
aF0.11432019106583059
aF8.070567462542994e-05
aF1.0033958043385969
aF8.3346713765903
aF0.0027630134502224404
aF3.400954949283686e-06
aF4.275468867831478e-13
aF0.9780476757993213
aF-0.007359865774955991
aF0.00013616826649548973
aF4.509416882096384e-06
aF1.1221332484767628e-07
aF0.11432019106583059
aF8.070567462542994e-05
aF0.0027630134502224404
aF3.400954949283686e-06
aF0.0007917642252133545
aF1.1234859771572233e-06
aI0
aF44.093356744702334
aI19
aa(lp236
g183
ag91
aS'2411'
p237
aF0.1161338628120902
aF0.0004635346221419498
aF0.29200427765037174
aF0.05668677597153203
aF0.0027324054378241097
aF1.5357924614205643e-05
aF0.9952422983128664
aF0.0015922598935611543
aF-0.0076734614714830274
aF0.0005120312704769731
aF2.2744026106913396e-11
aF9.743256457950295e-05
aF0.1161338628120902
aF0.0004635346221419498
aF0.0027324054378241097
aF1.5357924614205643e-05
aF0.0007954153115683018
aF5.483346528353408e-06
aI0
aF24.18376811511167
aI19
aa(lp238
g183
ag91
aS'2451'
p239
aF0.11413542547228976
aF0.00047915399250577343
aF0.5068928577496096
aF0.264411105437268
aF0.0027584560977972636
aF1.6046128118867107e-05
aF0.9957690964578146
aF0.006597323248599185
aF-0.0076458739451342695
aF0.0005275241831395886
aF4.575043651847688e-06
aF1.2048608463882671e-06
aF0.11413542547228976
aF0.00047915399250577343
aF0.0027584560977972636
aF1.6046128118867107e-05
aF0.0007891807307360851
aF5.66137384894423e-06
aI0
aF39.18559735814526
aI19
aa(lp240
g183
ag91
aS'2674'
p241
aF0.11243369488582802
aF0.0016950579198684985
aF8.143622966668037
aF8.969059139111735
aF0.0029025064572304362
aF1.4938967120978718e-05
aF0.002127965378288521
aF0.0007312423185166506
aF-0.007613510706330518
aF0.0004940879487806503
aF2.4240268126085598e-11
aF0.00010267886987509633
aF0.11243369488582802
aF0.0016950579198684985
aF0.0029025064572304362
aF1.4938967120978718e-05
aF0.0008180118815383914
aF1.3031280437848788e-05
aI0
aF28.708423290374643
aI19
aa(lp242
g183
ag91
aS'sum'
p243
aF0.11509765120995971
aF9.706134024866953e-05
aF0.6368958843237791
aF0.048545901702521155
aF8.890920008259527e-05
aF1.0633325996471101e-07
aF0.9840980800120404
aF0.006412410156079795
aF-0.007202706926616901
aF9.487474397703979e-05
aF1.5015802739604122e-07
aF5.864909795039174e-09
aF0.11509765120995971
aF9.706134024866953e-05
aF8.890920008259527e-05
aF1.0633325996471101e-07
aF2.565092897690851e-05
aF3.7537273302750974e-08
aI0
aF76.00474972925898
aI19
aa(lp244
S'3'
p245
ag91
ag27
aF0.13815318603506882
aF0.0007105952160782747
aF0.275088250278799
aF0.11066480053161716
aF0.00208528958041354
aF1.1857738235134798e-05
aF0.9954476170400015
aF0.002250852946722448
aF-0.0011888404482657202
aF0.0006257796200988663
aF8.45007397387576e-14
aF2.610199658859558e-05
aF0.13815318603506882
aF0.0007105952160782747
aF0.00208528958041354
aF1.1857738235134798e-05
aF0.0007221330340067604
aF5.536965183811056e-06
aI0
aF32.45532057078967
aI19
aa(lp246
g245
ag91
aS'51'
p247
aF0.11605716135613056
aF0.00043296755687798386
aF0.5977912342580892
aF0.542299012294822
aF0.002648733661330273
aF1.4740973204886536e-05
aF0.9964560465445365
aF0.01458940053001978
aF-0.00012151635649512618
aF0.00048526428101012474
aF4.880892181176044e-06
aF8.551168334527959e-07
aF0.11605716135613056
aF0.00043296755687798386
aF0.002648733661330273
aF1.4740973204886536e-05
aF0.0007705488363206288
aF5.162685336376001e-06
aI0
aF21.710121893446164
aI19
aa(lp248
g245
ag91
aS'91'
p249
aF0.11677520963876517
aF0.00048075399408604855
aF0.7853304159879
aF0.24069190707904664
aF0.0025800115756569393
aF1.6066857863407825e-05
aF0.957649515743402
aF0.12622730114474878
aF0.0003514140116074412
aF0.0005022541852918625
aF4.877984509250588e-06
aF5.484071475961307e-07
aF0.11677520963876517
aF0.00048075399408604855
aF0.0025800115756569393
aF1.6066857863407825e-05
aF0.0007552004573559307
aF5.637761324295066e-06
aI0
aF19.31260555022637
aI19
aa(lp250
g245
ag91
aS'131'
p251
aF0.11572424716658113
aF0.0005794028731597836
aF1.2415641862003393
aF0.17623611497604408
aF0.00262587995247497
aF1.7395987369899293e-05
aF0.1614958145137546
aF0.291867393878898
aF-0.0004015616178027042
aF0.0005753794427488949
aF5.691351991037319e-06
aF7.675476809876349e-07
aF0.11572424716658113
aF0.0005794028731597836
aF0.00262587995247497
aF1.7395987369899293e-05
aF0.0007617091383350211
aF6.325206987258863e-06
aI0
aF34.82597170559594
aI19
aa(lp252
g245
ag91
aS'171'
p253
aF0.1164928656874559
aF0.0005815502043420726
aF0.6567420272441049
aF0.12356606797816333
aF0.002575848617088371
aF1.7034320330012055e-05
aF0.9611883139288522
aF0.04366535130408167
aF-0.0005538816851930548
aF0.0005861966453022063
aF3.781841728484614e-06
aF9.358510355281233e-07
aF0.1164928656874559
aF0.0005815502043420726
aF0.002575848617088371
aF1.7034320330012055e-05
aF0.0007521589004799226
aF6.232241717071934e-06
aI0
aF20.254554735276674
aI19
aa(lp254
g245
ag91
aS'211'
p255
aF0.11672022420896483
aF3.936657490489614e-06
aF1.0014509408747336
aF6.960881444809894
aF0.0026405803687741007
aF1.4771702321492858e-07
aF3.5309755119783404e-11
aF0.6988928656016158
aF-0.0010068611928391903
aF6.548997896342306e-06
aF4.689236596596147e-06
aF6.088617481026129e-09
aF0.11672022420896483
aF3.936657490489614e-06
aF0.0026405803687741007
aF1.4771702321492858e-07
aF0.0007725657264879794
aF5.0465394572122636e-08
aI0
aF22.089367930992566
aI19
aa(lp256
g245
ag91
aS'251'
p257
aF0.11584482260642048
aF0.00047000734370832936
aF0.749670850271027
aF0.17695067627353434
aF0.0026475014658330436
aF1.5536926067469042e-05
aF0.9583955713823662
aF0.08305188828324794
aF-7.096033761006971e-05
aF0.00052747387630368
aF5.0229896920817034e-06
aF7.298051772886009e-07
aF0.11584482260642048
aF0.00047000734370832936
aF0.0026475014658330436
aF1.5536926067469042e-05
aF0.000768781231588322
aF5.484841542572704e-06
aI0
aF27.684695292599738
aI19
aa(lp258
g245
ag91
aS'291'
p259
aF0.11638132247326911
aF0.0003500495876211592
aF2.150114750812269
aF5.707442529501405
aF0.002640995406565668
aF1.2772829335731036e-05
aF0.9999999989104735
aF0.03096113744665463
aF-0.00025783648847936726
aF0.0004478035960617384
aF4.761328062503623e-06
aF4.4561587798586113e-07
aF0.11638132247326911
aF0.0003500495876211592
aF0.002640995406565668
aF1.2772829335731036e-05
aF0.0007704436284684095
aF4.387960101679336e-06
aI0
aF27.5139141627177
aI19
aa(lp260
g245
ag91
aS'771'
p261
aF0.11636734242177289
aF0.0005519570706563323
aF0.20455125911087904
aF0.08554583321188299
aF0.002687430864213577
aF1.402402321286811e-05
aF0.9975212776717765
aF0.0008906051695416473
aF-0.000806722126132815
aF0.00045862807828923435
aF1.0003584127726839e-10
aF0.00024003659933328038
aF0.11636734242177289
aF0.0005519570706563323
aF0.002687430864213577
aF1.402402321286811e-05
aF0.0007838958239675699
aF5.527976054912373e-06
aI0
aF30.332506644068822
aI19
aa(lp262
g245
ag91
aS'811'
p263
aF0.11742027627939623
aF0.0007909906274865336
aF0.38711887557389635
aF0.21208720002987683
aF0.002632700931804609
aF1.3104515382944115e-05
aF0.9953936760729107
aF0.002285278752739095
aF-0.00020079750836742878
aF0.0004523421742378577
aF1.8776966731753887e-06
aF3.6374266587599347e-06
aF0.11742027627939623
aF0.0007909906274865336
aF0.002632700931804609
aF1.3104515382944115e-05
aF0.0007748801918474493
aF6.490314387658206e-06
aI0
aF23.70509415038602
aI19
aa(lp264
g245
ag91
aS'851'
p265
aF0.11582249336435507
aF0.00043467086832037324
aF0.7060875817161149
aF0.11533429810824719
aF0.00265741852954137
aF1.4265775263902622e-05
aF0.9479651546181483
aF0.06180272558161515
aF-0.00034820445039696193
aF0.00044956149853193607
aF3.1338696708155255e-06
aF6.220269661064148e-07
aF0.11582249336435507
aF0.00043467086832037324
aF0.00265741852954137
aF1.4265775263902622e-05
aF0.0007715122089702031
aF5.053420517416598e-06
aI0
aF16.00541318519635
aI19
aa(lp266
g245
ag91
aS'891'
p267
aF0.11533039220608028
aF0.0003743786974173427
aF1.4371651309766222
aF4.973934617326532
aF0.0026436084572822004
aF1.2081575199874867e-05
aF0.000345154847717577
aF0.11273242134955588
aF-9.557775959668073e-06
aF0.00046091954679967423
aF4.466671242469578e-06
aF5.799351586260878e-07
aF0.11533039220608028
aF0.0003743786974173427
aF0.0026436084572822004
aF1.2081575199874867e-05
aF0.0007642418845926165
aF4.284072677905624e-06
aI0
aF28.48250725996591
aI19
aa(lp268
g245
ag91
aS'931'
p269
aF0.11533243721266491
aF0.00043520475583211555
aF1.5865966994667855
aF0.6737784251738383
aF0.002689931992053745
aF1.3671159929167388e-05
aF0.011025962638926301
aF0.024159540924836825
aF2.47277928745005e-06
aF0.0004589553143186478
aF2.8639731586554975e-06
aF8.052035849448471e-07
aF0.11533243721266491
aF0.00043520475583211555
aF0.002689931992053745
aF1.3671159929167388e-05
aF0.0007776473635928088
aF4.922537288062911e-06
aI0
aF18.70739023011461
aI19
aa(lp270
g245
ag91
aS'971'
p271
aF0.11402577621884662
aF0.00046439815013087733
aF1.6289649027479616
aF0.24334672429203164
aF0.0027264046574576955
aF1.5092817252630123e-05
aF0.02668843779810076
aF0.01955711866744228
aF-0.0015542334881339511
aF0.0004719719632871953
aF2.3225153428180214e-06
aF7.58097440711203e-07
aF0.11402577621884662
aF0.00046439815013087733
aF0.0027264046574576955
aF1.5092817252630123e-05
aF0.0007792616191005657
aF5.355534379361524e-06
aI0
aF26.536101535905143
aI19
aa(lp272
g245
ag91
aS'1011'
p273
aF0.11649000974110778
aF0.0014203366684355334
aF0.36817409728220407
aF0.29871706245164226
aF0.002688981578364511
aF1.629765305160495e-05
aF0.994855246534778
aF0.0031278700421539796
aF-0.0005033356304618939
aF0.0004977415021518606
aF1.7204393265424223e-06
aF6.499999432406922e-06
aF0.11649000974110778
aF0.0014203366684355334
aF0.002688981578364511
aF1.629765305160495e-05
aF0.0007851749630100532
aF1.069102520527447e-05
aI0
aF24.193785683856824
aI19
aa(lp274
g245
ag91
aS'1631'
p275
aF0.11365745143156304
aF0.00037781839934546775
aF1.5019831088781117
aF2.3082126789070982
aF0.00275980262225241
aF1.4145580870347178e-05
aF0.001012592744915941
aF0.044178276842275876
aF-0.001484724019266969
aF0.0004499242029679654
aF3.7979947711730413e-06
aF5.837158809704478e-07
aF0.11365745143156304
aF0.00037781839934546775
aF0.00275980262225241
aF1.4145580870347178e-05
aF0.0007862594362866812
aF4.803378901594523e-06
aI0
aF28.845487693604397
aI19
aa(lp276
g245
ag91
aS'1671'
p277
aF0.11349364510402622
aF0.0005466247781912263
aF0.7533147324103897
aF0.13953235811571918
aF0.0027890156724339216
aF1.980072113629775e-05
aF0.9220649790467116
aF0.1334151826204481
aF-0.00023810987586960007
aF0.000503476671185464
aF5.1225005784205636e-06
aF7.232289830497174e-07
aF0.11349364510402622
aF0.0005466247781912263
aF0.0027890156724339216
aF1.980072113629775e-05
aF0.0007934369718804209
aF6.806960018433506e-06
aI0
aF18.1176814000865
aI19
aa(lp278
g245
ag91
aS'1711'
p279
aF0.11399809284443876
aF0.0005485677072019001
aF1.7615867092271076
aF0.5472853698331603
aF0.002730630243887829
aF1.7272501143312862e-05
aF0.015056017152382473
aF0.01867541729870148
aF0.00018159219888467815
aF0.0005335179920405015
aF4.181949492750858e-06
aF1.332691375753592e-06
aF0.11399809284443876
aF0.0005485677072019001
aF0.002730630243887829
aF1.7272501143312862e-05
aF0.0007802798935057155
aF6.201511188938165e-06
aI0
aF17.10255204958593
aI19
aa(lp280
g245
ag91
aS'1751'
p281
aF0.11458416680023041
aF0.0004089010818812579
aF1.0000007481361037
aF0.4313491535487133
aF0.002679334948453861
aF1.6445277209587014e-05
aF0.0154345774234535
aF0.8830762056494256
aF-0.001026585503738762
aF0.0005511841051714364
aF5.735414336620615e-06
aF5.066159893110655e-07
aF0.11458416680023041
aF0.0004089010818812579
aF0.002679334948453861
aF1.6445277209587014e-05
aF0.0007695583489882247
aF5.46372878475678e-06
aI0
aF26.522194977134657
aI19
aa(lp282
g245
ag91
aS'1791'
p283
aF0.11531954405576433
aF0.0005307328158959682
aF4.4875704588169265
aF1.8280371036018912
aF0.0027349802655133783
aF1.3979528616609805e-05
aF0.0025364886994965197
aF0.0010956295393697024
aF-3.705016390929833e-05
aF0.0004728259175857039
aF3.402481574266147e-11
aF0.00018169206084256485
aF0.11531954405576433
aF0.0005307328158959682
aF0.0027349802655133783
aF1.3979528616609805e-05
aF0.0007905822288456127
aF5.437643010836788e-06
aI0
aF16.343597789151822
aI19
aa(lp284
g245
ag91
aS'1831'
p285
aF0.11609411754811551
aF0.0020796374824607515
aF0.12077748992767975
aF0.19494165317827727
aF0.00274922748388011
aF1.3984046793901958e-05
aF0.9975714980098956
aF0.0008378281952906574
aF-0.0008244499238965532
aF0.0004854890064869249
aF1.802533289296804e-11
aF0.0006061699521624061
aF0.11609411754811551
aF0.0020796374824607515
aF0.00274922748388011
aF1.3984046793901958e-05
aF0.0008000383874051297
aF1.4897949295619634e-05
aI0
aF29.119180864126513
aI19
aa(lp286
g245
ag91
aS'1871'
p287
aF0.11589367220226716
aF0.02262206194681671
aF6.394408380956045
aF7.852610703789068
aF0.002715724906568095
aF5.91357410316541e-05
aF0.002114935895201564
aF0.04919282567980007
aF-0.0005671880921311634
aF0.0004930261115557378
aF1.1114692578251262e-06
aF0.0007296355111060035
aF0.11589367220226716
aF0.02262206194681671
aF0.002715724906568095
aF5.91357410316541e-05
aF0.0007889244825006648
aF0.00015495070172742703
aI0
aF10.837441986901487
aI19
aa(lp288
g245
ag91
aS'2211'
p289
aF0.11508259747994187
aF2.0011283490588767e-05
aF1.0264463866297624
aF5.301171622976169
aF0.0027213957700776537
aF7.534594133706655e-07
aF1.2134926397067147e-10
aF0.807971441826997
aF0.0004738341087650555
aF3.3566345474822906e-05
aF3.4617590902158436e-06
aF2.1059565143422016e-08
aF0.11508259747994187
aF2.0011283490588767e-05
aF0.0027213957700776537
aF7.534594133706655e-07
aF0.0007850391131176236
aF2.5666180951032964e-07
aI0
aF28.560271415089083
aI19
aa(lp290
g245
ag91
aS'2251'
p291
aF0.11446162975156243
aF0.0005516665414787089
aF1.9711698779055111
aF0.6636740886107183
aF0.0027384822535391753
aF1.6141235886518984e-05
aF0.010104716532067515
aF0.009620786903816014
aF-0.001299349951578366
aF0.0005072610315966561
aF2.729861832512226e-06
aF1.7455560822368653e-06
aF0.11446162975156243
aF0.0005516665414787089
aF0.0027384822535391753
aF1.6141235886518984e-05
aF0.0007857054947157206
aF5.9822621448573746e-06
aI0
aF11.736129256119387
aI19
aa(lp292
g245
ag91
aS'2291'
p293
aF0.11442933583159548
aF0.0005615481673054724
aF0.7245139283887959
aF0.14724812692833572
aF0.0027262233577323726
aF1.825618332988526e-05
aF0.9345758862626973
aF0.106442000787008
aF0.00012359556238795025
aF0.0005253336245005312
aF3.0248888247036423e-06
aF7.922258841178143e-07
aF0.11442933583159548
aF0.0005615481673054724
aF0.0027262233577323726
aF1.825618332988526e-05
aF0.000781967576462415
aF6.49200886259984e-06
aI0
aF14.977729060323057
aI19
aa(lp294
g245
ag91
aS'2331'
p295
aF0.11300920627036382
aF0.0004915917105243681
aF0.6847133265262432
aF0.15046236683471975
aF0.0027327717167941446
aF1.6194575432570925e-05
aF0.9671021847652075
aF0.047933483542344946
aF0.00044728068185450514
aF0.0004977579169716513
aF3.948710925051891e-06
aF6.93663380440246e-07
aF0.11300920627036382
aF0.0004915917105243681
aF0.0027327717167941446
aF1.6194575432570925e-05
aF0.0007741179057838881
aF5.690732454744896e-06
aI0
aF27.024907263154013
aI19
aa(lp296
g245
ag91
aS'2371'
p297
aF0.11435791206689778
aF0.0005264936859276231
aF0.39610829809561166
aF0.1254849218330555
aF0.0027344001151822436
aF1.205598223766053e-05
aF0.9949286062771712
aF0.0018450484458944483
aF-0.0006342654112405443
aF0.00046442457052970037
aF1.1179845553555e-06
aF2.3650564432570187e-06
aF0.11435791206689778
aF0.0005264936859276231
aF0.0027344001151822436
aF1.205598223766053e-05
aF0.0007838233832048933
aF4.996547898336053e-06
aI0
aF34.5218356199413
aI19
aa(lp298
g245
ag91
aS'2411'
p299
aF0.11470890916817728
aF0.0005387621214684909
aF1.2717271152638747
aF0.4283970269920809
aF0.002715455553378642
aF1.8104741442869898e-05
aF0.05417125247756721
aF0.17159758066171585
aF-5.991141604397452e-05
aF0.0005543626441493502
aF4.448858159699643e-06
aF6.639189185078663e-07
aF0.11470890916817728
aF0.0005387621214684909
aF0.002715455553378642
aF1.8104741442869898e-05
aF0.000780781982068438
aF6.367683925835404e-06
aI0
aF20.13332501067822
aI19
aa(lp300
g245
ag91
aS'2451'
p301
aF0.112992484217633
aF0.00045717917805636923
aF0.5811569911097935
aF0.2600557501493276
aF0.0027740624901058672
aF1.4681497850863512e-05
aF0.9898333829365169
aF0.018746088243878467
aF0.00023793592034718748
aF0.00045665952846514945
aF3.45065033533154e-06
aF1.1479740244374483e-06
aF0.112992484217633
aF0.00045717917805636923
aF0.0027740624901058672
aF1.4681497850863512e-05
aF0.0007856981511626443
aF5.234226057370661e-06
aI0
aF32.52794130663742
aI19
aa(lp302
g245
ag91
aS'2674'
p303
aF0.11024035504766574
aF0.0011500701748231514
aF2.693614866310514
aF2.2195753020982623
aF0.002923456927268073
aF1.7108228422052377e-05
aF0.004596069497487365
aF0.0034699201728586315
aF-0.0009756241394223602
aF0.0004937553692663292
aF1.727920025965668e-06
aF5.510594987535866e-06
aF0.11024035504766574
aF0.0011500701748231514
aF0.002923456927268073
aF1.7108228422052377e-05
aF0.0008078435038379374
aF9.663147680520765e-06
aI0
aF40.3125476772847
aI19
aa(lp304
g245
ag91
aS'sum'
p305
aF0.11468735191783794
aF8.914965691145798e-05
aF0.6503951686884076
aF0.03716682776526786
aF8.89670676712778e-05
aF9.425612626399939e-08
aF0.9786163369828429
aF0.0068054292977686726
aF-0.0003849249028662583
aF8.90497823553875e-05
aF1.4926657335323502e-07
aF5.4010445271757145e-09
aF0.11468735191783794
aF8.914965691145798e-05
aF8.89670676712778e-05
aF9.425612626399939e-08
aF2.557612441791541e-05
aF3.360776590729832e-08
aI0
aF46.0016508158735
aI19
aa(lp306
S'4'
p307
ag28
ag27
aF0.134407978763551
aF1.38347468236316e-08
aF1.0000122515127086
aF1.0461319431261296
aF0.00211491966358478
aF3.9219242827306933e-10
aF0.999999994069543
aF0.872062307081511
aF-0.007365468550582113
aF2.4038207422729014e-08
aF4.8042326336150685e-06
aF2.1419833684431175e-11
aF0.134407978763551
aF1.38347468236316e-08
aF0.00211491966358478
aF3.9219242827306933e-10
aF0.000712539360189356
aF1.5112401433371092e-10
aI0
aF31.979675675100253
aI19
aa(lp308
g307
ag28
aS'51'
p309
aF0.126676749910951
aF0.00046852757829508586
aF0.3164598104813691
aF0.06633818369472522
aF0.00265264026864853
aF1.3864448389913023e-05
aF0.9949512871020435
aF0.0018858429403959542
aF-0.004972908850169817
aF0.0005093757871680982
aF3.0934244055202953e-12
aF1.0653080888277933e-05
aF0.126676749910951
aF0.00046852757829508586
aF0.00265264026864853
aF1.3864448389913023e-05
aF0.0008422969046479158
aF5.3931785189252205e-06
aI0
aF23.383512532507698
aI19
aa(lp310
g307
ag28
aS'91'
p311
aF0.12803923726872252
aF0.0005644739078882176
aF0.8124535953443341
aF0.17059668460317312
aF0.002589805909727603
aF1.4166673635192901e-05
aF0.8568633131724368
aF0.5501205943191501
aF-0.005762729660970207
aF0.0005274511472334624
aF5.101580488903745e-06
aF9.567475178595686e-07
aF0.12803923726872252
aF0.0005644739078882176
aF0.002589805909727603
aF1.4166673635192901e-05
aF0.0008311898478694349
aF5.83957463500406e-06
aI0
aF19.48672191263469
aI19
aa(lp312
g307
ag28
aS'131'
p313
aF0.12979161702073233
aF0.0005416084672925377
aF3.069355950891525
aF0.5898927443907387
aF0.002601173656319164
aF1.532263966586597e-05
aF0.007266699425686973
aF0.0024920244411775205
aF-0.005505164383697972
aF0.0005332062382244639
aF2.9630908837674496e-13
aF2.9203304541564057e-05
aF0.12979161702073233
aF0.0005416084672925377
aF0.002601173656319164
aF1.532263966586597e-05
aF0.000846264112857822
aF6.1091290699247135e-06
aI0
aF34.12699928537355
aI19
aa(lp314
g307
ag28
aS'171'
p315
aF0.12902463765045377
aF0.0006080499115556057
aF0.6950514914015997
aF0.14247088046697276
aF0.0025694640161885683
aF1.6462070596657934e-05
aF0.9551789075505988
aF0.05946775537205895
aF-0.005028904106808176
aF0.0006040491505461761
aF3.7470930998262376e-06
aF1.2956693552729217e-06
aF0.12902463765045377
aF0.0006080499115556057
aF0.0025694640161885683
aF1.6462070596657934e-05
aF0.0008310078423149734
aF6.6093309648216775e-06
aI0
aF23.9691851724832
aI19
aa(lp316
g307
ag28
aS'211'
p317
aF0.12619816667063102
aF0.00015162524690609327
aF1.0051351481278397
aF5.244079558596136
aF0.002657035520841883
aF5.736335401408145e-06
aF2.074451721512105e-13
aF0.6966683060274654
aF-0.005489980881548045
aF0.00025609050712790304
aF5.281464589448892e-06
aF2.6197551949075397e-07
aF0.12619816667063102
aF0.00015162524690609327
aF0.002657035520841883
aF5.736335401408145e-06
aF0.0008405050755001066
aF2.076662686591683e-06
aI0
aF39.943616646522
aI19
aa(lp318
g307
ag28
aS'251'
p319
aF0.1279325341829291
aF0.000650398068405393
aF0.2492917556337607
aF0.08822718711217337
aF0.00263179833553557
aF1.3276408130822757e-05
aF0.9955962243416678
aF0.0016515549266732932
aF-0.005591155736105312
aF0.0005394188387377953
aF4.9602021934269656e-11
aF8.651649368135144e-05
aF0.1279325341829291
aF0.000650398068405393
aF0.00263179833553557
aF1.3276408130822757e-05
aF0.0008439632675300442
aF6.044469556326547e-06
aI0
aF25.630718651757224
aI19
aa(lp320
g307
ag28
aS'291'
p321
aF0.12747215453110478
aF0.00046578282140042406
aF0.4194486539086202
aF0.046091425882873904
aF0.002656579916216538
aF1.5838349658768092e-05
aF0.9888518361864296
aF0.003709227419934513
aF-0.005452603089493622
aF0.0005344569679494207
aF3.3968938772943606e-14
aF9.367091101545877e-06
aF0.12747215453110478
aF0.00046578282140042406
aF0.002656579916216538
aF1.5838349658768092e-05
aF0.0008488445127035168
aF5.935622460557224e-06
aI0
aF14.660400492468163
aI19
aa(lp322
g307
ag28
aS'771'
p323
aF0.12586650043768957
aF0.0005837905199002754
aF0.8650715533027328
aF0.05983222569278296
aF0.0026818955854081786
aF1.5143591675273026e-05
aF0.6394191268840176
aF0.5129531588278939
aF-0.004940667888244138
aF0.00047244163871755897
aF4.9401386798469946e-06
aF6.966450696041515e-07
aF0.12586650043768957
aF0.0005837905199002754
aF0.0026818955854081786
aF1.5143591675273026e-05
aF0.000846139475452309
aF6.183000843423262e-06
aI0
aF21.730813981852982
aI19
aa(lp324
g307
ag28
aS'811'
p325
aF0.12645221630062903
aF0.000523186724734542
aF0.7461170426728232
aF0.11881725341026911
aF0.002629468021519886
aF1.4346788551897758e-05
aF0.9207143160577135
aF0.11317062833141811
aF-0.005960680739882324
aF0.0004985321579959521
aF3.5316158362502792e-06
aF7.735145437695599e-07
aF0.12645221630062903
aF0.000523186724734542
aF0.002629468021519886
aF1.4346788551897758e-05
aF0.0008334590624945593
aF5.707091567128928e-06
aI0
aF20.77623185620215
aI19
aa(lp326
g307
ag28
aS'851'
p327
aF0.12681751193069957
aF0.00043078911388007914
aF1.9130555678367889
aF0.10330550326756693
aF0.002649160471032432
aF1.3817351993482708e-05
aF0.028267509663269907
aF0.007369574670250928
aF-0.00675056349205922
aF0.00050816455130569
aF8.557654584961939e-14
aF1.2302505911984674e-06
aF0.12681751193069957
aF0.00043078911388007914
aF0.002649160471032432
aF1.3817351993482708e-05
aF0.000842126683848691
aF5.241729329594741e-06
aI0
aF14.516764369729467
aI19
aa(lp328
g307
ag28
aS'891'
p329
aF0.12480712281362062
aF0.0005118424922503628
aF0.7804443931667834
aF0.0788629861227983
aF0.002700833379209446
aF1.5816563704228572e-05
aF0.8562981787330999
aF0.16727841885256872
aF-0.0065590440229102275
aF0.0005085655623915156
aF3.4326261479200595e-06
aF8.079791732112927e-07
aF0.12480712281362062
aF0.0005118424922503628
aF0.002700833379209446
aF1.5816563704228572e-05
aF0.0008449423884551215
aF6.0408116385031705e-06
aI0
aF27.12811308611896
aI19
aa(lp330
g307
ag28
aS'931'
p331
aF0.12448590072506563
aF0.0004447363153650623
aF0.6896999029824461
aF0.10788554708650427
aF0.002739583355909219
aF1.3650595828830752e-05
aF0.9575217476184554
aF0.04280132948908577
aF-0.005200036996280203
aF0.0004704820097339445
aF3.3619953069313757e-06
aF9.278761447653607e-07
aF0.12448590072506563
aF0.0004447363153650623
aF0.002739583355909219
aF1.3650595828830752e-05
aF0.0008548592576564928
aF5.241264952618066e-06
aI0
aF34.82684797571978
aI19
aa(lp332
g307
ag28
aS'971'
p333
aF0.12573278631749582
aF0.0006879399625571241
aF1.9406462982236135
aF0.6763460449044093
aF0.0026962044964377804
aF1.4039167055221197e-05
aF0.013364028327529698
aF0.012175505277662313
aF-0.006128184017808472
aF0.0005087567158976092
aF1.86699857909145e-06
aF2.6964846730695437e-06
aF0.12573278631749582
aF0.0006879399625571241
aF0.0026962044964377804
aF1.4039167055221197e-05
aF0.0008497502532891859
aF6.418268390917528e-06
aI0
aF27.40635680889376
aI19
aa(lp334
g307
ag28
aS'1011'
p335
aF0.12592528393335636
aF0.0004692729415173702
aF0.7276075837967797
aF0.15983528297874577
aF0.0026680073755494128
aF1.4374039216966854e-05
aF0.9587390461091034
aF0.06860988529858486
aF-0.005569579706482479
aF0.000511195610977284
aF4.598680759844154e-06
aF8.359391204984524e-07
aF0.12592528393335636
aF0.0004692729415173702
aF0.0026680073755494128
aF1.4374039216966854e-05
aF0.0008421508644415474
aF5.516782050234078e-06
aI0
aF29.322954931760943
aI19
aa(lp336
g307
ag28
aS'1631'
p337
aF0.12254326552419459
aF0.0004909018379484805
aF0.7426411600351284
aF0.09541970047903553
aF0.0028046463131152248
aF1.4869302337335976e-05
aF0.9103857871556279
aF0.09961909747471026
aF-0.0059478018785203415
aF0.0004904330703197602
aF4.527383576019561e-06
aF8.689410814438636e-07
aF0.12254326552419459
aF0.0004909018379484805
aF0.0028046463131152248
aF1.4869302337335976e-05
aF0.0008615043697642083
aF5.724648947473133e-06
aI0
aF24.50295891072222
aI19
aa(lp338
g307
ag28
aS'1671'
p339
aF0.12331074451126538
aF0.0006161393782217757
aF1.372815238464139
aF0.20052537505520607
aF0.0027642645145593402
aF1.9290458492311324e-05
aF0.08906206580059955
aF0.10876334785176286
aF-0.006160155374641787
aF0.0005211111127517826
aF5.389417339980995e-06
aF1.0623564194367494e-06
aF0.12331074451126538
aF0.0006161393782217757
aF0.0027642645145593402
aF1.9290458492311324e-05
aF0.0008544181252821647
aF7.3333800648735345e-06
aI0
aF10.138542369736344
aI19
aa(lp340
g307
ag28
aS'1711'
p341
aF0.12534456220595575
aF0.0004819783589204964
aF0.4226696356250105
aF0.045138377496028725
aF0.0027600704377826316
aF1.5614097846542016e-05
aF0.9877563067038615
aF0.0039233709462781485
aF-0.006046078091076904
aF0.0005199585607302159
aF2.289077594141986e-11
aF0.0001528042225525225
aF0.12534456220595575
aF0.0004819783589204964
aF0.0027600704377826316
aF1.5614097846542016e-05
aF0.0008671926684064298
aF5.931812032700989e-06
aI0
aF22.302688068117476
aI19
aa(lp342
g307
ag28
aS'1751'
p343
aF0.12418990298702966
aF0.0005913342823523548
aF0.7636656028493104
aF0.03201312074628343
aF0.00270149967826197
aF1.763284159842513e-05
aF0.42081594095797814
aF0.16215621847577938
aF-0.006486526621877388
aF0.0005274438850095538
aF4.967196691144648e-06
aF7.157290728462827e-07
aF0.12418990298702966
aF0.0005913342823523548
aF0.00270149967826197
aF1.763284159842513e-05
aF0.0008409712368046138
aF6.794436758445539e-06
aI0
aF34.90341918941132
aI19
aa(lp344
g307
ag28
aS'1791'
p345
aF0.12563732723028817
aF0.0008800897922104475
aF0.4368255552869599
aF0.2347835907203647
aF0.002704060163926072
aF1.3688755033348758e-05
aF0.9928479009259248
aF0.005411635725445008
aF-0.005143726484890133
aF0.0004229695960861192
aF1.3965996159120974e-06
aF4.15517129450288e-06
aF0.12563732723028817
aF0.0008800897922104475
aF0.002704060163926072
aF1.3688755033348758e-05
aF0.0008515790588145104
aF7.359974128583318e-06
aI0
aF30.878880014303025
aI19
aa(lp346
g307
ag28
aS'1831'
p347
aF0.12349367844865959
aF0.0006379125188344565
aF0.5436353117943856
aF0.11693051560072348
aF0.0027630816955137
aF1.5013486528462619e-05
aF0.9756782982229666
aF0.015882910779849435
aF-0.004584325515978692
aF0.0005178479227652041
aF1.4751143549618373e-06
aF2.468570026446515e-06
aF0.12349367844865959
aF0.0006379125188344565
aF0.0027630816955137
aF1.5013486528462619e-05
aF0.0008553195266487993
aF6.412439365438829e-06
aI0
aF42.5905492782475
aI19
aa(lp348
g307
ag28
aS'1871'
p349
aF0.12467535540452607
aF0.0006447653561817194
aF0.7374667252029192
aF0.10783322159166353
aF0.002704944101603479
aF1.768295105042156e-05
aF0.8779501812939503
aF0.16549695246710294
aF-0.0064447392442265
aF0.0005206305556680645
aF3.940860952650893e-06
aF1.0518877440640616e-06
aF0.12467535540452607
aF0.0006447653561817194
aF0.002704944101603479
aF1.768295105042156e-05
aF0.0008453349864984105
aF7.046305850753461e-06
aI0
aF21.46287861972176
aI19
aa(lp350
g307
ag28
aS'2211'
p351
aF0.12511317399741442
aF0.0004345811941140254
aF0.3256447985903992
aF0.07714709303747341
aF0.0027380018294048646
aF1.1440653967679203e-05
aF0.9954466334594164
aF0.0019879754240304526
aF-0.005289164699580993
aF0.0005074921520188426
aF1.0363376823363524e-14
aF2.6996350782828305e-05
aF0.12511317399741442
aF0.0004345811941140254
aF0.0027380018294048646
aF1.1440653967679203e-05
aF0.0008586708306346253
aF4.665738887720795e-06
aI0
aF15.973032957161461
aI19
aa(lp352
g307
ag28
aS'2251'
p353
aF0.12538390663087562
aF0.001044687465829067
aF0.6023334405059615
aF0.5085981358418072
aF0.002705529796102581
aF1.5001632545422021e-05
aF0.9833407786773716
aF0.05691200538772434
aF-0.005274307145105909
aF0.0005121294636266105
aF3.510654525173407e-06
aF3.368899013659055e-06
aF0.12538390663087562
aF0.001044687465829067
aF0.002705529796102581
aF1.5001632545422021e-05
aF0.0008503232472633143
aF8.510269448971178e-06
aI0
aF16.58421162942112
aI19
aa(lp354
g307
ag28
aS'2291'
p355
aF0.12466849311929751
aF0.0006226576524650191
aF1.6389045799785278
aF0.3739282663135983
aF0.0027238663443184914
aF1.793188301687284e-05
aF0.03157421385389747
aF0.031817598481591686
aF-0.006091832684157924
aF0.0005010862183322696
aF3.167781328199948e-06
aF1.8000365232734292e-06
aF0.12466849311929751
aF0.0006226576524650191
aF0.0027238663443184914
aF1.793188301687284e-05
aF0.0008512016130826136
aF7.033842671582574e-06
aI0
aF23.96623232901193
aI19
aa(lp356
g307
ag28
aS'2331'
p357
aF0.12485489949379772
aF0.0006528320599832274
aF0.5938290685424216
aF0.20758924944807655
aF0.0027009379468934157
aF1.3795210237221118e-05
aF0.9791951930761801
aF0.02911362941930984
aF-0.0057808587254876
aF0.000560833847888786
aF4.359608779245794e-06
aF2.0157700582978946e-06
aF0.12485489949379772
aF0.0006528320599832274
aF0.0027009379468934157
aF1.3795210237221118e-05
aF0.0008452985618847701
aF6.1785932310163e-06
aI0
aF15.945177067428332
aI19
aa(lp358
g307
ag28
aS'2371'
p359
aF0.12435908196300388
aF0.0006003361204661462
aF0.4762744922766613
aF0.1871237537625986
aF0.002758543304558795
aF1.4251949777791418e-05
aF0.9920666948688637
aF0.006404376873183681
aF-0.005760741473373608
aF0.00042802013385475653
aF1.5332288978531228e-06
aF2.546881426450931e-06
aF0.12435908196300388
aF0.0006003361204661462
aF0.002758543304558795
aF1.4251949777791418e-05
aF0.0008598986113102159
aF6.080198761639279e-06
aI0
aF29.278456449038785
aI19
aa(lp360
g307
ag28
aS'2411'
p361
aF0.12363324624112679
aF0.0006788461390720688
aF1.810927038671532
aF0.38504984585024615
aF0.002746969827334539
aF1.3007717785948293e-05
aF0.02841700554983656
aF0.01987397533457272
aF-0.0059353722108726565
aF0.0005208005854420642
aF2.822701450538867e-06
aF2.455954340244704e-06
aF0.12363324624112679
aF0.0006788461390720688
aF0.002746969827334539
aF1.3007717785948293e-05
aF0.0008512930660998371
aF6.172431553103246e-06
aI0
aF23.648985051382986
aI19
aa(lp362
g307
ag28
aS'2451'
p363
aF0.12401250980794074
aF0.0005868854548419623
aF0.6677772617980604
aF0.1084440587621498
aF0.0027355798019785267
aF1.559157258131821e-05
aF0.9436975780667556
aF0.05745880843733131
aF-0.005442057383715664
aF0.0005243416416439565
aF3.0455148837604808e-06
aF1.0720175192857618e-06
aF0.12401250980794074
aF0.0005868854548419623
aF0.0027355798019785267
aF1.559157258131821e-05
aF0.0008503639089892972
aF6.29964914241358e-06
aI0
aF6.355110413874877
aI19
aa(lp364
g307
ag28
aS'2674'
p365
aF0.12116378888287643
aF0.0010602540157825273
aF2.301586985295325
aF1.471463603929152
aF0.0028991467702182217
aF1.4025844547482704e-05
aF0.007557731401670709
aF0.007173976177573316
aF-0.007612945608765435
aF0.0004887603840195546
aF1.017586033020823e-06
aF6.1241410973214565e-06
aF0.12116378888287643
aF0.0010602540157825273
aF0.0028991467702182217
aF1.4025844547482704e-05
aF0.0008805073427006263
aF8.80411449809968e-06
aI0
aF20.781484710031016
aI19
aa(lp366
g307
ag28
aS'sum'
p367
aF0.12455000770655235
aF0.00011162910235194934
aF0.6829342038417923
aF0.027250264607677988
aF8.905232973864431e-05
aF1.0189483192817131e-07
aF0.9517880425995424
aF0.01227319487345574
aF-0.005725511965354873
aF0.00010646648649997294
aF1.460904532324392e-07
aF7.812776775806278e-09
aF0.12455000770655235
aF0.00011162910235194934
aF8.905232973864431e-05
aF1.0189483192817131e-07
aF2.780218818640602e-05
aF4.040896778134979e-08
aI0
aF54.662869111111476
aI19
aa(lp368
S'5'
p369
ag28
ag27
aF0.13169128401974553
aF0.0005640450279382861
aF1.000000174335025
aF0.07369790746045313
aF0.002140944345820517
aF1.2726165830578883e-05
aF0.2573549722704905
aF0.613511051257581
aF-0.011562381527373558
aF0.0006249181771163847
aF7.065944952707182e-06
aF1.5270974451181421e-06
aF0.13169128401974553
aF0.0005640450279382861
aF0.002140944345820517
aF1.2726165830578883e-05
aF0.0007067280751296008
aF5.177869061055486e-06
aI0
aF21.406883423825384
aI13
aa(lp370
g369
ag28
aS'51'
p371
aF0.12498285953744921
aF0.000496025266384243
aF0.5144972416080602
aF0.09105873363326439
aF0.002692404204504018
aF1.4621602624987056e-05
aF0.980505562811961
aF0.012296941289336505
aF-0.009053474422900111
aF0.0004815086270830973
aF2.6695701205170506e-13
aF7.590770924792711e-06
aF0.12498285953744921
aF0.000496025266384243
aF0.002692404204504018
aF1.4621602624987056e-05
aF0.0008434913846959473
aF5.67358798285252e-06
aI0
aF31.449615816446304
aI13
aa(lp372
g369
ag28
aS'91'
p373
aF0.12663815900794717
aF0.0005417681975588028
aF0.4963487424895523
aF0.09839683042875413
aF0.002632074708145199
aF1.535281235352879e-05
aF0.9816689087716197
aF0.012113734562386014
aF-0.01006298516349021
aF0.0004917545243270667
aF5.019989979260231e-13
aF1.0131576379162067e-05
aF0.12663815900794717
aF0.0005417681975588028
aF0.002632074708145199
aF1.535281235352879e-05
aF0.0008355120822879089
aF6.043791270588186e-06
aI0
aF16.206641851866713
aI13
aa(lp374
g369
ag28
aS'131'
p375
aF0.12465696378473766
aF0.002365503154985113
aF1.3563988509876845
aF2.240464229958201
aF0.0026421873403380696
aF1.7414848320483406e-05
aF0.05543403123824708
aF0.9079302699180064
aF-0.009329795299379905
aF0.0005852898702138795
aF7.3296042418585786e-06
aF1.6037537033798398e-05
aF0.12465696378473766
aF0.002365503154985113
aF0.0026421873403380696
aF1.7414848320483406e-05
aF0.0008256007642649256
aF1.6584810106848227e-05
aI0
aF16.466640095678862
aI13
aa(lp376
g369
ag28
aS'171'
p377
aF0.1268532047126628
aF0.0005788009219799933
aF1.606638995047357
aF0.2147728450570694
aF0.0025849691536763623
aF1.6841093616183243e-05
aF0.04896160477487854
aF0.03701747023743626
aF-0.008308109550363483
aF0.0005635634360243245
aF1.3267165144270621e-16
aF4.442664428077892e-06
aF0.1268532047126628
aF0.0005788009219799933
aF0.0025849691536763623
aF1.6841093616183243e-05
aF0.0008219525413482563
aF6.537707197769152e-06
aI0
aF25.888425275850686
aI13
aa(lp378
g369
ag28
aS'211'
p379
aF0.12511149189569812
aF0.0004965614200634045
aF0.5579716680689085
aF0.09678711650537586
aF0.00266883886081628
aF1.4295190755784755e-05
aF0.9746786693335392
aF0.019086650536920935
aF-0.009735481923071637
aF0.0004727211410150096
aF2.565903600704189e-12
aF8.70879196093466e-06
aF0.12511149189569812
aF0.0004965614200634045
aF0.00266883886081628
aF1.4295190755784755e-05
aF0.0008369692256482652
aF5.5796967657874215e-06
aI0
aF20.084816576731214
aI13
aa(lp380
g369
ag28
aS'251'
p381
aF0.1253749516772364
aF0.0012313576125517558
aF0.7060241088314185
aF0.2538758635452084
aF0.0026441003925044863
aF1.8103469425212676e-05
aF0.9033965222290103
aF0.1883846803471988
aF-0.010341807941242035
aF0.0005660152042341057
aF2.4617739224969127e-06
aF8.100869796543176e-06
aF0.1253749516772364
aF0.0012313576125517558
aF0.0026441003925044863
aF1.8103469425212676e-05
aF0.0008309571966311476
aF9.948531200754933e-06
aI0
aF12.004252854477166
aI13
aa(lp382
g369
ag28
aS'291'
p383
aF0.12450305600316487
aF0.0005130522141253296
aF0.6264898818615721
aF0.05694821953595941
aF0.002684351136569653
aF1.6940878398907224e-05
aF0.9398855681467735
aF0.03254775755343442
aF-0.009628661890025165
aF0.0005088004516124409
aF2.3703261575747095e-16
aF3.4474050458885297e-06
aF0.12450305600316487
aF0.0005130522141253296
aF0.002684351136569653
aF1.6940878398907224e-05
aF0.0008377400348546525
aF6.314216492959551e-06
aI0
aF21.861491856699956
aI13
aa(lp384
g369
ag28
aS'771'
p385
aF0.1252632530621235
aF0.0007527502824286179
aF0.3627721500945321
aF0.17351615929998984
aF0.0026827585218508797
aF1.4996173284516703e-05
aF0.9920918607726705
aF0.006438134315625066
aF-0.00921479703046301
aF0.00048410197445068265
aF4.394763275517022e-11
aF0.001405002945534586
aF0.1252632530621235
aF0.0007527502824286179
aF0.0026827585218508797
aF1.4996173284516703e-05
aF0.0008423550877811854
aF6.913394663125519e-06
aI0
aF9.217474946010409
aI13
aa(lp386
g369
ag28
aS'811'
p387
aF0.12506475362880404
aF0.0005076364090681321
aF0.6218859450314244
aF0.04885310335858334
aF0.002652343904625052
aF1.4521608817766578e-05
aF0.9311380651291865
aF0.03220792713910009
aF-0.010640042977275669
aF0.00048502431832172474
aF1.808386773660686e-14
aF4.522621809430194e-06
aF0.12506475362880404
aF0.0005076364090681321
aF0.002652343904625052
aF1.4521608817766578e-05
aF0.0008314855388027731
aF5.66699458705391e-06
aI0
aF12.280389404629561
aI13
aa(lp388
g369
ag28
aS'851'
p389
aF0.1252244499326058
aF0.000448008793918026
aF1.0001543932373413
aF5.336063514487897
aF0.002622707595483992
aF1.4464700748356533e-05
aF0.9999805865836815
aF0.6866610309405088
aF-0.008878706287653774
aF0.0005443854490922872
aF1.12418724773794e-05
aF1.270006563688641e-06
aF0.1252244499326058
aF0.000448008793918026
aF0.002622707595483992
aF1.4464700748356533e-05
aF0.0008232446950673485
aF5.411965044079125e-06
aI0
aF24.487593656716104
aI13
aa(lp390
g369
ag28
aS'891'
p391
aF0.12480074272039604
aF0.00048460762309786575
aF1.635475086809163
aF0.19114234778110428
aF0.0026815154231240885
aF1.4008220072281828e-05
aF0.04891071447249257
aF0.030846856513967597
aF-0.009353520586926678
aF0.00048256391745525595
aF2.592161485459599e-12
aF8.192868788559627e-06
aF0.12480074272039604
aF0.00048460762309786575
aF0.0026815154231240885
aF1.4008220072281828e-05
aF0.0008388559770735231
aF5.460185350411561e-06
aI0
aF19.938449025532112
aI13
aa(lp392
g369
ag28
aS'931'
p393
aF0.12246218054412912
aF0.0004205931076604832
aF1.0155120666632054
aF5.251560384863319
aF0.002724214019101938
aF1.2660663210457964e-05
aF6.0587646011356355e-12
aF0.7038458267628975
aF-0.008960209557603339
aF0.0004893288176490477
aF1.0908153940079601e-05
aF1.256265055717687e-06
aF0.12246218054412912
aF0.0004205931076604832
aF0.002724214019101938
aF1.2660663210457964e-05
aF0.0008362442524578075
aF4.832482521204558e-06
aI0
aF17.11218834787345
aI13
aa(lp394
g369
ag28
aS'971'
p395
aF0.12382632463390929
aF0.000549346886683657
aF1.669378707660137
aF0.2258000030018189
aF0.0027009217113260226
aF1.5004387552554604e-05
aF0.04328470295268494
aF0.030192618050829595
aF-0.008769388692748337
aF0.0005489168281353989
aF8.071932011688433e-14
aF5.627595519202833e-06
aF0.12382632463390929
aF0.000549346886683657
aF0.0027009217113260226
aF1.5004387552554604e-05
aF0.0008383298162854458
aF5.959994247546194e-06
aI0
aF24.35146675230314
aI13
aa(lp396
g369
ag28
aS'1011'
p397
aF0.1247060063919443
aF0.0004934476158322686
aF1.685812605820414
aF0.17122303277624396
aF0.0027048450183429495
aF1.4929304411874945e-05
aF0.04839682810161977
aF0.025692941000136582
aF-0.009307632246687408
aF0.0004830212352323486
aF1.0823397733616957e-13
aF6.107549972284298e-06
aF0.1247060063919443
aF0.0004934476158322686
aF0.0027048450183429495
aF1.4929304411874945e-05
aF0.0008455118364673668
aF5.742107358110374e-06
aI0
aF24.504164849255105
aI13
aa(lp398
g369
ag28
aS'1631'
p399
aF0.12367928788571526
aF0.0005986585890143353
aF0.3437949066438447
aF0.13204293947072027
aF0.002765764354933071
aF1.2408754325444332e-05
aF0.9928948110163719
aF0.004288491849367637
aF-0.008917548127557332
aF0.0005064781283196196
aF4.5241886903468753e-11
aF0.0001333006672233414
aF0.12367928788571526
aF0.0005986585890143353
aF0.002765764354933071
aF1.2408754325444332e-05
aF0.0008574367337891931
aF5.659001640896949e-06
aI0
aF15.331681484942914
aI13
aa(lp400
g369
ag28
aS'1671'
p401
aF0.12242837602189383
aF0.0009870677827427603
aF0.7113330343400672
aF0.189088472167674
aF0.0027414859757888006
aF1.5617273317137473e-05
aF0.8866337575340169
aF0.18352928664335416
aF-0.009717752300257114
aF0.0005092660722991404
aF5.849050990299754e-06
aF6.3900377548081755e-06
aF0.12242837602189383
aF0.0009870677827427603
aF0.0027414859757888006
aF1.5617273317137473e-05
aF0.0008413138751923934
aF8.30535861025708e-06
aI0
aF25.7702862755276
aI13
aa(lp402
g369
ag28
aS'1711'
p403
aF0.12356152269730855
aF0.0005646992210138867
aF0.6043826074860188
aF0.06427391364692442
aF0.0027524494423880022
aF1.5316792700041703e-05
aF0.9451297376779888
aF0.03264227901320216
aF-0.009422715160090783
aF0.0005714829017203019
aF7.482903185973555e-14
aF4.686429177273576e-06
aF0.12356152269730855
aF0.0005646992210138867
aF0.0027524494423880022
aF1.5316792700041703e-05
aF0.0008524963659068662
aF6.138770129406492e-06
aI0
aF8.881216156919834
aI13
aa(lp404
g369
ag28
aS'1751'
p405
aF0.12316606048900576
aF0.0005399248926924185
aF0.5511309195332061
aF0.0771650769405568
aF0.002732599038152928
aF1.579608486206724e-05
aF0.9657646521020316
aF0.02034227962710805
aF-0.010510090271432891
aF0.0005455925361300799
aF3.578415341820573e-14
aF1.917628406417432e-05
aF0.12316606048900576
aF0.0005399248926924185
aF0.002732599038152928
aF1.579608486206724e-05
aF0.0008436394810965585
aF6.120451187523017e-06
aI0
aF18.280482543333584
aI13
aa(lp406
g369
ag28
aS'1791'
p407
aF0.12392396821805253
aF0.0004825398642193455
aF2.127719351678705
aF0.4751196343637405
aF0.0027358722241584443
aF1.3055390711823019e-05
aF0.015068250772783898
aF0.010012389996492843
aF-0.00938231889066157
aF0.0004903328064216333
aF6.1167737541723e-15
aF1.030621558544137e-05
aF0.12392396821805253
aF0.0004825398642193455
aF0.0027358722241584443
aF1.3055390711823019e-05
aF0.0008498476075639491
aF5.234212082081763e-06
aI0
aF15.79267684277566
aI13
aa(lp408
g369
ag28
aS'1831'
p409
aF0.12305599360549022
aF0.0005472267798363051
aF1.8194713088725512
aF0.2496635142248872
aF0.0027695261624423925
aF1.5288793975494746e-05
aF0.037938431406756346
aF0.022233169182226592
aF-0.008756506931663103
aF0.0005671062624263235
aF1.2999473719688126e-12
aF4.091219251663336e-05
aF0.12305599360549022
aF0.0005472267798363051
aF0.0027695261624423925
aF1.5288793975494746e-05
aF0.0008542759453643634
aF6.055725946555462e-06
aI0
aF14.019268606304843
aI13
aa(lp410
g369
ag28
aS'1871'
p411
aF0.12390246377638267
aF0.000491706014129159
aF0.6211419194614862
aF0.05390304310237193
aF0.002714781810427281
aF1.5328962807462663e-05
aF0.9363426738138196
aF0.03289679605237594
aF-0.009286623852577688
aF0.0004560308904792641
aF6.280365116850817e-14
aF5.867830652619977e-06
aF0.12390246377638267
aF0.000491706014129159
aF0.002714781810427281
aF1.5328962807462663e-05
aF0.0008431499278261026
aF5.819058758421257e-06
aI0
aF9.950487782645336
aI13
aa(lp412
g369
ag28
aS'2211'
p413
aF0.12421091937156101
aF0.0011557771778768326
aF0.3026366417400444
aF0.19107044698583284
aF0.0027423054336451792
aF1.612151622482701e-05
aF0.9929888867358835
aF0.005255023593886299
aF-0.008833257742344626
aF0.0005392245322674877
aF7.079193109493787e-10
aF0.0008492698537442874
aF0.12421091937156101
aF0.0011557771778768326
aF0.0027423054336451792
aF1.612151622482701e-05
aF0.0008538184490446697
aF9.397540267895932e-06
aI0
aF10.490768505782947
aI13
aa(lp414
g369
ag28
aS'2251'
p415
aF0.12251269796220059
aF0.0005052502237029402
aF0.6774876952871614
aF0.048447372136890265
aF0.0027690123444586313
aF1.7467901131029782e-05
aF0.9119463863306617
aF0.04938914176024711
aF-0.00979676648167481
aF0.00048125904699088785
aF1.4432899320127036e-17
aF1.1910586508584455e-06
aF0.12251269796220059
aF0.0005052502237029402
aF0.0027690123444586313
aF1.7467901131029782e-05
aF0.0008503465029299685
aF6.408882501337194e-06
aI0
aF19.754039587932986
aI13
aa(lp416
g369
ag28
aS'2291'
p417
aF0.12407835452692671
aF0.0005481754824155535
aF0.43663709517365856
aF0.1260879861982671
aF0.002750276057289013
aF1.4556919190717018e-05
aF0.987035967684863
aF0.009403513997143786
aF-0.009470258522514907
aF0.0005101275830705945
aF6.153895726335179e-12
aF4.298532415411172e-05
aF0.12407835452692671
aF0.0005481754824155535
aF0.002750276057289013
aF1.4556919190717018e-05
aF0.0008553862161208994
aF5.897406141944521e-06
aI0
aF16.05609595502976
aI13
aa(lp418
g369
ag28
aS'2331'
p419
aF0.1233140086549329
aF0.0005424472360208876
aF1.5897143501700206
aF0.19141659156752955
aF0.0027679843714553377
aF1.5385223513485202e-05
aF0.056515896120525655
aF0.039946581773434936
aF-0.009549094953332136
aF0.0005329613359914186
aF1.4858669850070783e-14
aF7.811500941575232e-06
aF0.1233140086549329
aF0.0005424472360208876
aF0.0027679843714553377
aF1.5385223513485202e-05
aF0.0008555905591026864
aF6.064734149656841e-06
aI0
aF24.508008247851052
aI13
aa(lp420
g369
ag28
aS'2371'
p421
aF0.12313139000344368
aF0.0005336644125106993
aF1.6309099210462308
aF0.24846683940998404
aF0.0027705906930662414
aF1.5222997196972848e-05
aF0.03761065745633807
aF0.03179037006215746
aF-0.008993404855763838
aF0.0005201113850898383
aF2.748856142709144e-12
aF1.8756345741077208e-05
aF0.12313139000344368
aF0.0005336644125106993
aF0.0027705906930662414
aF1.5222997196972848e-05
aF0.0008551279218251181
aF5.984303858112349e-06
aI0
aF16.61969200136952
aI13
aa(lp422
g369
ag28
aS'2411'
p423
aF0.12411624271401539
aF0.0005405643117435604
aF0.5033177196528451
aF0.09138138705744886
aF0.0027126752705457927
aF1.5121280188426381e-05
aF0.9767348400108413
aF0.014530187838843633
aF-0.009773920545259112
aF0.0005164219211893919
aF1.914543523717782e-12
aF2.2494410123704012e-05
aF0.12411624271401539
aF0.0005405643117435604
aF0.0027126752705457927
aF1.5121280188426381e-05
aF0.0008439493100219413
aF5.9701034329990775e-06
aI0
aF15.40705872482935
aI13
aa(lp424
g369
ag28
aS'2451'
p425
aF0.12257929068517211
aF0.0005435776847323326
aF1.8575658772479975
aF0.28025062426173564
aF0.002740513397127539
aF1.5788085509704872e-05
aF0.03276006533009662
aF0.01989456632824088
aF-0.00929879651386403
aF0.0005001476333068074
aF3.7100106320409055e-12
aF4.0884486670602076e-05
aF0.12257929068517211
aF0.0005435776847323326
aF0.002740513397127539
aF1.5788085509704872e-05
aF0.0008420521083778782
aF6.121773675061717e-06
aI0
aF12.779367871005318
aI13
aa(lp426
g369
ag28
aS'2674'
p427
aF0.11927526464193203
aF0.0005480280585307186
aF2.158863815281678
aF0.4542306333625171
aF0.0029236340318925685
aF1.9141819785393078e-05
aF0.0156274536325135
aF0.010127935013765355
aF-0.010606629656967473
aF0.0004973716228220046
aF9.408995804705001e-13
aF1.886229448054666e-05
aF0.11927526464193203
aF0.0005480280585307186
aF0.0029236340318925685
aF1.9141819785393078e-05
aF0.0008741044506971052
aF6.991608643827085e-06
aI0
aF13.46347525372587
aI13
aa(lp428
g369
ag28
aS'sum'
p429
aF0.12335701661440489
aF0.00010393696691102824
aF1.7467325237020186
aF0.04309071620452243
aF8.97157339723282e-05
aF1.128141044083185e-07
aF0.039472955454841196
aF0.004551194499961386
aF-0.009398884543943296
aF0.00010699289639184046
aF4.274358644806853e-17
aF1.66388270106399e-08
aF0.12335701661440489
aF0.00010393696691102824
aF8.97157339723282e-05
aF1.128141044083185e-07
aF2.7741018763571176e-05
aF4.199017996077311e-08
aI0
aF44.48387206659363
aI13
aa(lp430
S'6'
p431
ag91
ag27
aF0.13751632593416604
aF0.005751968800583902
aF0.1000003813807216
aF6.106263821875637
aF0.002144820270962573
aF1.9605751987201905e-05
aF0.9977776808198865
aF0.0037030217614349437
aF-0.007517027910222256
aF0.004760439812426051
aF4.640767855557116e-09
aF0.006211632193856587
aF0.13751632593416604
aF0.005751968800583902
aF0.002144820270962573
aF1.9605751987201905e-05
aF0.0007393245036728282
aF3.165396994706529e-05
aI4
aF22.90404216803734
aI13
aa(lp432
g431
ag91
aS'51'
p433
aF0.11446571364301149
aF0.0005149538115136802
aF2.6384331987789693
aF1.0034632155318932
aF0.0027181902395437886
aF1.7028767737438822e-05
aF0.005897788388885661
aF0.004668191954946999
aF-0.006848034633638643
aF0.0004604050406042948
aF1.1606589578327942e-11
aF2.2072330912544516e-05
aF0.11446571364301149
aF0.0005149538115136802
aF0.0027181902395437886
aF1.7028767737438822e-05
aF0.0007799112825889656
aF6.015228252538565e-06
aI0
aF21.946383567412582
aI13
aa(lp434
g431
ag91
aS'91'
p435
aF0.11603729516561785
aF0.002548876396695533
aF0.5068419827583434
aF0.5295702089363838
aF0.0025898445765262547
aF2.1186212711121147e-05
aF0.9831953918815131
aF0.027903431175442694
aF-0.007844546651836584
aF0.0004995600789654184
aF4.450179470755211e-07
aF0.0001557610446353885
aF0.11603729516561785
aF0.002548876396695533
aF0.0025898445765262547
aF2.1186212711121147e-05
aF0.0007532883184431016
aF1.765695784899987e-05
aI0
aF11.488692472279581
aI13
aa(lp436
g431
ag91
aS'131'
p437
aF0.11583720085345597
aF0.0005544246411735734
aF0.48100615642321365
aF0.12070793083446152
aF0.0026324624594757954
aF1.6932478174186113e-05
aF0.9876147197309293
aF0.01061474587068223
aF-0.0066639459654290805
aF0.0005972189525033632
aF3.5017544419702065e-14
aF1.839470833296386e-05
aF0.11583720085345597
aF0.0005544246411735734
aF0.0026324624594757954
aF1.6932478174186113e-05
aF0.0007643639133727309
aF6.128323650340096e-06
aI0
aF13.696644275252556
aI13
aa(lp438
g431
ag91
aS'171'
p439
aF0.11543323097533645
aF0.0004185292517365769
aF0.9999998405595325
aF0.010253464458891304
aF0.002578510037439762
aF1.5820914491783238e-05
aF0.9354647479283612
aF0.8309340563299625
aF-0.007523239333995435
aF0.0005004315065627439
aF7.387059758853787e-06
aF8.949430998300697e-07
aF0.11543323097533645
aF0.0004185292517365769
aF0.002578510037439762
aF1.5820914491783238e-05
aF0.000746087239548798
aF5.317276751171004e-06
aI0
aF17.4230278620503
aI13
aa(lp440
g431
ag91
aS'211'
p441
aF0.11418153458087829
aF5.7955176433344e-06
aF0.9993239984147843
aF5.1497546103191665
aF0.0026778242589078024
aF2.3411836061796275e-07
aF2.515815333836713e-11
aF0.7535882770265339
aF-0.0070792846162011916
aF9.770728004004107e-06
aF7.039508424969699e-06
aF1.4326964313249296e-08
aF0.11418153458087829
aF5.7955176433344e-06
aF0.0026778242589078024
aF2.3411836061796275e-07
aF0.0007664218565962204
aF7.74807911389549e-08
aI0
aF21.695863102237734
aI13
aa(lp442
g431
ag91
aS'251'
p443
aF0.11413134079184811
aF0.00039429696308523725
aF1.000011694973784
aF0.005990838336816684
aF0.0026490304699614687
aF1.4504409763992521e-05
aF0.2133234843513243
aF0.6049962155127374
aF-0.006649259281372191
aF0.0004747831018576782
aF8.546459169807009e-06
aF8.312461755405342e-07
aF0.11413134079184811
aF0.00039429696308523725
aF0.0026490304699614687
aF1.4504409763992521e-05
aF0.0007578474736519207
aF4.906442175935625e-06
aI0
aF11.50130119150786
aI13
aa(lp444
g431
ag91
aS'291'
p445
aF0.1145296452858338
aF0.0004717997902920534
aF0.45803745575912114
aF0.0903465205714224
aF0.0026654687607657246
aF1.5586100438464562e-05
aF0.9886672685456024
aF0.006910175591200607
aF-0.006728006898013677
aF0.0004899327713913758
aF2.0788926136106058e-15
aF6.1404195882844294e-06
aF0.1145296452858338
aF0.0004717997902920534
aF0.0026654687607657246
aF1.5586100438464562e-05
aF0.0007652114270359825
aF5.47338407538118e-06
aI0
aF26.136329017681508
aI13
aa(lp446
g431
ag91
aS'771'
p447
aF0.11379893524563468
aF0.00032702899858408254
aF1.0578226285056092
aF6.241321786628416
aF0.0026932748800557065
aF1.1647658049396487e-05
aF5.551115123125783e-17
aF0.7136055505656821
aF-0.007346277426688154
aF0.0004169396182070721
aF6.586708828487109e-06
aF8.440994765668284e-07
aF0.11379893524563468
aF0.00032702899858408254
aF0.0026932748800557065
aF1.1647658049396487e-05
aF0.0007682610460985703
aF3.989161861352063e-06
aI0
aF41.37914319354874
aI13
aa(lp448
g431
ag91
aS'811'
p449
aF0.1156698638072248
aF0.00047120665304017505
aF0.44414830669407124
aF0.1069761161910052
aF0.002648000102343142
aF1.4196370464865122e-05
aF0.990266273467024
aF0.006618190687528114
aF-0.0067843461515482446
aF0.00045812406194988616
aF4.141786913436363e-13
aF1.3714585729235897e-05
aF0.1156698638072248
aF0.00047120665304017505
aF0.002648000102343142
aF1.4196370464865122e-05
aF0.0007677647274972778
aF5.169588941176095e-06
aI0
aF9.040031734059433
aI13
aa(lp450
g431
ag91
aS'851'
p451
aF0.11379994209429073
aF0.0005562826880561001
aF1.5612099910584818
aF0.1155046558734899
aF0.0026836740742312995
aF1.7678858116615447e-05
aF0.06837950649884594
aF0.03505151551655111
aF-0.007181379805187198
aF0.0005526655142375814
aF6.68387567515083e-14
aF5.637601269553317e-06
aF0.11379994209429073
aF0.0005562826880561001
aF0.0026836740742312995
aF1.7678858116615447e-05
aF0.0007655291736442743
aF6.279715481443651e-06
aI0
aF9.397652619805791
aI13
aa(lp452
g431
ag91
aS'891'
p453
aF0.1141275544648517
aF0.0013727138195222658
aF1.6190141796829716
aF1.0690240281055405
aF0.0026597379541142417
aF1.4790973415134941e-05
aF0.03394609462398407
aF0.08249569358078043
aF-0.005878605490379138
aF0.0005472064714386058
aF1.158044552205806e-06
aF1.4696231348521328e-05
aF0.1141275544648517
aF0.0013727138195222658
aF0.0026597379541142417
aF1.4790973415134941e-05
aF0.0007608854792602129
aF1.0082683052064165e-05
aI0
aF22.722263021926455
aI13
aa(lp454
g431
ag91
aS'931'
p455
aF0.11330816964447926
aF7.897050279522366e-07
aF1.0002001724962384
aF6.936948643128726
aF0.0027154357624959505
aF3.2721263967024766e-08
aF2.294084366916138e-09
aF0.7492235124256678
aF-0.0072462615654633415
aF1.3472176148311673e-06
aF6.352048132527988e-06
aF2.424636166564979e-09
aF0.11330816964447926
aF7.897050279522366e-07
aF0.0027154357624959505
aF3.2721263967024766e-08
aF0.0007712420346271026
aF1.0736044395349455e-08
aI0
aF15.299035205094349
aI13
aa(lp456
g431
ag91
aS'971'
p457
aF0.11387823317965819
aF0.00044314101090955546
aF0.9998326380766411
aF1.3790608959439856
aF0.0026844375820819855
aF1.7213308268039865e-05
aF0.9989616661621253
aF0.9368016447399135
aF-0.007093119013573173
aF0.0005718910665642743
aF7.2802248735615025e-06
aF8.894903747130867e-07
aF0.11387823317965819
aF0.00044314101090955546
aF0.0026844375820819855
aF1.7213308268039865e-05
aF0.0007662737793070286
aF5.747550450809567e-06
aI0
aF8.886416540976743
aI13
aa(lp458
g431
ag91
aS'1011'
p459
aF0.11437840858711845
aF0.0004766432310265551
aF0.48127284594383535
aF0.07872859922067943
aF0.002715023898578994
aF1.6100201083388234e-05
aF0.9848158386576238
aF0.008612481102939495
aF-0.007501593074413815
aF0.0005223574603333872
aF1.5846207679359737e-12
aF5.775684573276762e-06
aF0.11437840858711845
aF0.0004766432310265551
aF0.002715023898578994
aF1.6100201083388234e-05
aF0.0007784086271401988
aF5.641789326727622e-06
aI0
aF20.86644591256224
aI13
aa(lp460
g431
ag91
aS'1631'
p461
aF0.1120514184826346
aF0.0003895871900150612
aF0.9999929606395782
aF0.11588306030622736
aF0.002761681384129797
aF1.3382635465910729e-05
aF0.8517479581844918
aF0.527053238237257
aF-0.006866125847763339
aF0.0005268809466804922
aF7.380163635622439e-06
aF9.130718319899644e-07
aF0.1120514184826346
aF0.0003895871900150612
aF0.002761681384129797
aF1.3382635465910729e-05
aF0.0007756769129044115
aF4.62622314884363e-06
aI0
aF14.732985748652387
aI13
aa(lp462
g431
ag91
aS'1671'
p463
aF0.11280323840884031
aF0.0005002599216154982
aF0.5535867527810241
aF0.05799895805104133
aF0.002766475701215489
aF1.7803235031667785e-05
aF0.9697208399760998
aF0.015652517675838418
aF-0.00821058890877247
aF0.0005352549952411305
aF1.8468560014639478e-14
aF3.1785816345278333e-06
aF0.11280323840884031
aF0.0005002599216154982
aF0.002766475701215489
aF1.7803235031667785e-05
aF0.0007822370137415842
aF6.113529817520909e-06
aI0
aF11.639442679770362
aI13
aa(lp464
g431
ag91
aS'1711'
p465
aF0.11280329122138202
aF0.0005162444643260447
aF1.7602204252966498
aF0.18253734726504
aF0.0027737281243185663
aF1.718959620007404e-05
aF0.041002311794190505
aF0.021126988214403314
aF-0.007358482609767968
aF0.0005388881553899372
aF2.226180351172502e-13
aF2.856023009983999e-05
aF0.11280329122138202
aF0.0005162444643260447
aF0.0027737281243185663
aF1.718959620007404e-05
aF0.0007842880455328176
aF6.042111830275844e-06
aI0
aF22.646309513064597
aI13
aa(lp466
g431
ag91
aS'1751'
p467
aF0.11331656114912513
aF9.092154410865783e-07
aF1.0117529954390045
aF6.159147287058672
aF0.0026545755851882335
aF3.24298988429398e-08
aF3.128608483393691e-13
aF0.12264491251692464
aF-0.00697432580080104
aF1.5044170312198347e-06
aF7.83720040947955e-06
aF2.4187656647018638e-09
aF0.11331656114912513
aF9.092154410865783e-07
aF0.0026545755851882335
aF3.24298988429398e-08
aF0.000754012275463187
aF1.1020574930015109e-08
aI0
aF12.975886677830525
aI13
aa(lp468
g431
ag91
aS'1791'
p469
aF0.11386476762286483
aF0.0005814718959650967
aF3.1744692702334447
aF1.7834048844510386
aF0.0027211312669980616
aF1.2654936061604494e-05
aF0.0041199756356425365
aF0.0034234014124582823
aF-0.006886570397087047
aF0.00045132215744277045
aF9.553366986381207e-12
aF0.00021726592888365564
aF0.11386476762286483
aF0.0005814718959650967
aF0.0027211312669980616
aF1.2654936061604494e-05
aF0.0007766561595734372
aF5.364355404467568e-06
aI0
aF13.562183786927337
aI13
aa(lp470
g431
ag91
aS'1831'
p471
aF0.11091536464510061
aF0.0006208742815511654
aF0.7873703011219182
aF0.10605336357379119
aF0.002781751174272611
aF1.7010991390641484e-05
aF0.7896710242749625
aF0.32788306244812665
aF-0.007325683614573324
aF0.0005306669168573102
aF7.076167648020215e-06
aF2.0819641952521396e-06
aF0.11091536464510061
aF0.0006208742815511654
aF0.002781751174272611
aF1.7010991390641484e-05
aF0.0007733924454833878
aF6.411715881540973e-06
aI0
aF23.717348636214954
aI13
aa(lp472
g431
ag91
aS'1871'
p473
aF0.1131437956268149
aF0.00043257522943079433
aF1.7696851663155846
aF0.18113364255067788
aF0.002731574320806851
aF1.3222020121079082e-05
aF0.0294921560556759
aF0.014949347295975024
aF-0.006739653982069585
aF0.00048551750053483784
aF2.336464355323642e-15
aF2.201275651779744e-06
aF0.1131437956268149
aF0.00043257522943079433
aF0.002731574320806851
aF1.3222020121079082e-05
aF0.0007747002558411108
aF4.778523869324488e-06
aI0
aF23.848325367729572
aI13
aa(lp474
g431
ag91
aS'2211'
p475
aF0.11303723457920807
aF0.0006652867462853208
aF1.2113414662838453
aF0.7684325908992419
aF0.0027410709013727906
aF2.005574641166289e-05
aF0.8922091737189942
aF0.9345903926891694
aF-0.007093495658003435
aF0.0004886422522787255
aF4.988139895131804e-06
aF1.2110152164665488e-06
aF0.11303723457920807
aF0.0006652867462853208
aF0.0027410709013727906
aF2.005574641166289e-05
aF0.0007766614111819388
aF7.292956566902322e-06
aI0
aF9.56066641557688
aI13
aa(lp476
g431
ag91
aS'2251'
p477
aF0.11400025924543306
aF0.0014485351142796367
aF1.8869963464522959
aF1.9410829217881882
aF0.0027371761824869583
aF1.7976773373253735e-05
aF0.011098113251100383
aF0.024020284029243
aF-0.007431667240779958
aF0.000493884649149937
aF3.566792474393177e-06
aF9.873219073435467e-06
aF0.11400025924543306
aF0.0014485351142796367
aF0.0027371761824869583
aF1.7976773373253735e-05
aF0.0007821652648346806
aF1.1187613635606673e-05
aI0
aF12.53737547245119
aI13
aa(lp478
g431
ag91
aS'2291'
p479
aF0.11399965584774523
aF0.0005485477575189052
aF2.8365062705484543
aF0.9111877554669762
aF0.0027437408261114724
aF1.6614593996463643e-05
aF0.007355463599941603
aF0.004288528952094389
aF-0.0071955417160601024
aF0.00046712266105963487
aF1.3034018309099338e-15
aF1.5598865497696294e-05
aF0.11399965584774523
aF0.0005485477575189052
aF0.0027437408261114724
aF1.6614593996463643e-05
aF0.000784037003040585
aF6.064123931255772e-06
aI0
aF28.032716809174673
aI13
aa(lp480
g431
ag91
aS'2331'
p481
aF0.11310969174330134
aF0.0021933228412822363
aF1.975815816881605
aF1.8103588821566887
aF0.0027193102569920535
aF1.9958453808610306e-05
aF0.01656511570485225
aF0.025727702721225598
aF-0.007007234922611388
aF0.0005043024615610806
aF1.5814621080856295e-06
aF3.679816215095722e-05
aF0.11310969174330134
aF0.0021933228412822363
aF0.0027193102569920535
aF1.9958453808610306e-05
aF0.0007709895893041677
aF1.5985422755327626e-05
aI0
aF30.42517264550879
aI13
aa(lp482
g431
ag91
aS'2371'
p483
aF0.11302254232117596
aF0.000433311198016642
aF2.0601787550306585
aF0.35000097124369745
aF0.002768470089100202
aF1.4405380086587958e-05
aF0.013833663388126416
aF0.008394071406125803
aF-0.0071082055186195816
aF0.000471841687654594
aF9.633344122406129e-13
aF5.7611220154143996e-06
aF0.11302254232117596
aF0.000433311198016642
aF0.002768470089100202
aF1.4405380086587958e-05
aF0.0007843228035278299
aF5.069266350804266e-06
aI0
aF16.080437123984098
aI13
aa(lp484
g431
ag91
aS'2411'
p485
aF0.11395216900112402
aF0.0005539996681921883
aF2.6047860285243574
aF0.8243003503783449
aF0.0027366080636236382
aF1.6717898777742846e-05
aF0.007731711095452676
aF0.005214943759508511
aF-0.006324921085847028
aF0.0005113223082534902
aF1.872063615238062e-13
aF3.179440759580821e-05
aF0.11395216900112402
aF0.0005539996681921883
aF0.0027366080636236382
aF1.6717898777742846e-05
aF0.0007816730386212523
aF6.102844055488782e-06
aI0
aF8.200235517654257
aI13
aa(lp486
g431
ag91
aS'2451'
p487
aF0.11194970046853907
aF0.00041683344770557907
aF0.9999988483870372
aF0.007111139689156831
aF0.0027816387821768245
aF1.7378464578210505e-05
aF0.003149658366374153
aF0.5842358045241681
aF-0.007559234259203508
aF0.0005237342379653241
aF8.775928215642437e-06
aF1.0609104954156797e-06
aF0.11194970046853907
aF0.00041683344770557907
aF0.0027816387821768245
aF1.7378464578210505e-05
aF0.0007805731399615495
aF5.67706670965529e-06
aI0
aF15.531997570932653
aI13
aa(lp488
g431
ag91
aS'2674'
p489
aF0.10994537876650051
aF6.321172461537305e-07
aF1.0124799218414724
aF5.243137129192007
aF0.0028815913991636867
aF2.43280194607131e-08
aF2.325917236589703e-14
aF0.01659795954008228
aF-0.008117377819061116
aF1.0373003471852072e-06
aF6.830622529249153e-06
aF1.6524224044632245e-09
aF0.10994537876650051
aF6.321172461537305e-07
aF0.0028815913991636867
aF2.43280194607131e-08
aF0.0007941440990224106
aF8.111636831752064e-09
aI0
aF31.10912863146633
aI13
aa(lp490
g431
ag91
aS'sum'
p491
aF0.11393582540543859
aF0.00010074114854403417
aF2.1435762935118943
aF0.07279898161190435
aF8.968140983156908e-05
aF1.0556195050570041e-07
aF0.014557487538572889
aF0.0015404194373664082
aF-0.00724744053435557
aF9.294805959430778e-05
aF6.494804694057165e-17
aF5.900156486965403e-08
aF0.11393582540543859
aF0.00010074114854403417
aF8.968140983156908e-05
aF1.0556195050570041e-07
aF2.561254084776757e-05
aF3.770620538647771e-08
aI0
aF54.57323001606453
aI13
aa(lp492
S'7'
p493
ag28
ag27
aF0.13428550454698857
aF1.3720660098555168e-05
aF0.1000132577973595
aF5.8956787300764
aF0.0021442545408929133
aF3.508034242339156e-07
aF0.9999999990941826
aF0.0009580318629549001
aF0.019874066495198243
aF2.2627662648001983e-05
aF8.227746760497978e-06
aF4.377209094630403e-08
aF0.13428550454698857
aF1.3720660098555168e-05
aF0.0021442545408929133
aF3.508034242339156e-07
aF0.0007217643179139509
aF1.392187120366503e-07
aI0
aF41.782667752676836
aI13
aa(lp494
g493
ag28
aS'51'
p495
aF0.12734841262412075
aF0.0004688172997676859
aF0.5900912977993704
aF0.08538595100745916
aF0.0026807106420967137
aF1.4231800240158826e-05
aF0.9663112303148577
aF0.023721079119757738
aF0.018699448779113552
aF0.0005114884002530754
aF1.9130252937316073e-14
aF4.5435112773981046e-06
aF0.12734841262412075
aF0.0004688172997676859
aF0.0026807106420967137
aF1.4231800240158826e-05
aF0.0008557234009694049
aF5.5283730958858565e-06
aI0
aF38.863858035900876
aI13
aa(lp496
g493
ag28
aS'91'
p497
aF0.12733343357989207
aF0.001982933813881953
aF4.941604425673167
aF7.153107984548795
aF0.002607229613885078
aF4.174850422666767e-05
aF0.9846830265174122
aF0.017497119397759886
aF0.018122894339549216
aF0.0005394261345501209
aF7.424356463772708e-06
aF1.2483019557327224e-06
aF0.12733343357989207
aF0.001982933813881953
aF0.002607229613885078
aF4.174850422666767e-05
aF0.0008321692514844586
aF1.8587653952204258e-05
aI0
aF12.234822191613496
aI13
aa(lp498
g493
ag28
aS'131'
p499
aF0.12837282819743095
aF0.0005769568930925128
aF1.912249330154458
aF0.45466242428716264
aF0.0026676678847451767
aF1.6466901617440133e-05
aF0.02136381416975397
aF0.01792849290729362
aF0.017530680419053955
aF0.0005767986936959489
aF7.982448035903644e-14
aF1.0389999407184048e-05
aF0.12837282819743095
aF0.0005769568930925128
aF0.0026676678847451767
aF1.6466901617440133e-05
aF0.0008584100705285053
aF6.554487365780286e-06
aI0
aF16.633150677474582
aI13
aa(lp500
g493
ag28
aS'171'
p501
aF0.12874704445643897
aF0.0007435490804361012
aF2.3927835532172224
aF1.0431634753093857
aF0.002626725845998705
aF1.6658743992963932e-05
aF0.011064839583114106
aF0.01046280681931111
aF0.0179477349043409
aF0.0005234289030340251
aF1.230938573293372e-11
aF0.00016703991128235506
aF0.12874704445643897
aF0.0007435490804361012
aF0.002626725845998705
aF1.6658743992963932e-05
aF0.0008476995442282482
aF7.271214425037874e-06
aI0
aF8.763189461327293
aI13
aa(lp502
g493
ag28
aS'211'
p503
aF0.1265022468823091
aF2.9067727156776823e-09
aF0.9997126477180833
aF5.023211521621429
aF0.002664323975209235
aF1.0550465752781624e-10
aF6.789852013966424e-11
aF0.0008169516286309353
aF0.018634463052439352
aF4.947377088866073e-09
aF8.940394892127945e-06
aF9.851921777940555e-12
aF0.1265022468823091
aF2.9067727156776823e-09
aF0.002664323975209235
aF1.0550465752781624e-10
aF0.0008448414365788125
aF3.86792871765855e-11
aI0
aF19.1839085354469
aI13
aa(lp504
g493
ag28
aS'251'
p505
aF0.12704704754118276
aF0.0005732078076179092
aF0.5317682969924145
aF0.1083281956897707
aF0.002704341194384942
aF1.5741453679833824e-05
aF0.9745983003989365
aF0.019696688127826878
aF0.01715310496012414
aF0.000540834448305542
aF8.184675159839117e-14
aF1.907322623137059e-05
aF0.12704704754118276
aF0.0005732078076179092
aF0.002704341194384942
aF1.5741453679833824e-05
aF0.0008612237438079497
aF6.34260384900835e-06
aI0
aF25.224025506569067
aI13
aa(lp506
g493
ag28
aS'291'
p507
aF0.1271061246027316
aF0.0020737618182787047
aF0.5671566128180403
aF0.6859902527136955
aF0.0026528940016381777
aF2.1011629067150834e-05
aF0.985061182116548
aF0.04100206362987152
aF0.017895701969397763
aF0.0005292733470869334
aF3.8549509150287435e-06
aF1.4371866451639291e-05
aF0.1271061246027316
aF0.0020737618182787047
aF0.0026528940016381777
aF2.1011629067150834e-05
aF0.0008452327369030863
aF1.532918470808358e-05
aI0
aF15.158906233397218
aI13
aa(lp508
g493
ag28
aS'771'
p509
aF0.12594989533228862
aF0.0004912795709234409
aF1.5176596389380512
aF0.11412169434739106
aF0.0027016979249655268
aF1.4678691837796427e-05
aF0.0825499673307375
aF0.04447046993272913
aF0.01756467687395445
aF0.0004886732712606234
aF1.3183898417423734e-15
aF2.3756759167048448e-06
aF0.12594989533228862
aF0.0004912795709234409
aF0.0027016979249655268
aF1.4678691837796427e-05
aF0.0008529518869909368
aF5.704814173324154e-06
aI0
aF32.31563744812799
aI13
aa(lp510
g493
ag28
aS'811'
p511
aF0.12682131361809879
aF0.0005351412823885604
aF0.44079345713407125
aF0.09300783694009446
aF0.0026635790711128536
aF1.4726401039534976e-05
aF0.9848625278411938
aF0.008004839397669328
aF0.018326134147714144
aF0.0005082017956658135
aF4.505607831273295e-11
aF8.045051547171306e-05
aF0.12682131361809879
aF0.0005351412823885604
aF0.0026635790711128536
aF1.4726401039534976e-05
aF0.0008467355136795731
aF5.889109620736403e-06
aI0
aF22.750028094474235
aI13
aa(lp512
g493
ag28
aS'851'
p513
aF0.12587590223845097
aF0.0005279023265915534
aF0.6314962079779971
aF0.05249002800553321
aF0.002693608831907489
aF1.683169803835512e-05
aF0.9194491495857753
aF0.04197837636354007
aF0.018372517584025725
aF0.0004786869222660881
aF3.173089568875298e-13
aF1.084600784537676e-05
aF0.12587590223845097
aF0.0005279023265915534
aF0.002693608831907489
aF1.683169803835512e-05
aF0.0008498984907105814
aF6.396023735470372e-06
aI0
aF11.482635465604265
aI13
aa(lp514
g493
ag28
aS'891'
p515
aF0.12583554535008987
aF0.0010901005318439262
aF1.324162541295404
aF0.5340754837441475
aF0.002686178028908697
aF1.6849912022940446e-05
aF0.11776507072717862
aF0.5280643545505201
aF0.017886887780307593
aF0.0005430606840856714
aF7.289078541556915e-06
aF6.6920192420913396e-06
aF0.12583554535008987
aF0.0010901005318439262
aF0.002686178028908697
aF1.6849912022940446e-05
aF0.0008472821603040635
aF9.062120644458556e-06
aI0
aF18.004410753785894
aI13
aa(lp516
g493
ag28
aS'931'
p517
aF0.12503371479588415
aF0.0005091814026619892
aF1.6650975724965893
aF0.29572808456198074
aF0.002749176382626431
aF1.705708309320637e-05
aF0.030223006885144066
aF0.02812813132034439
aF0.019105883197530163
aF0.000510955782954373
aF3.567693918071768e-12
aF1.4166693362760998e-05
aF0.12503371479588415
aF0.0005091814026619892
aF0.002749176382626431
aF1.705708309320637e-05
aF0.0008616277407423652
aF6.394593214929199e-06
aI0
aF17.896261232405724
aI13
aa(lp518
g493
ag28
aS'971'
p519
aF0.12589651187938733
aF0.0007125266195314306
aF0.42173816634306205
aF0.1617129820597852
aF0.002727994952178559
aF1.7284726639392326e-05
aF0.9886676945569949
aF0.009902119557922529
aF0.01836960826416252
aF0.0005339736809454615
aF7.169692506359126e-11
aF0.000325227815147743
aF0.12589651187938733
aF0.0007125266195314306
aF0.002727994952178559
aF1.7284726639392326e-05
aF0.0008608890703644338
aF7.3138549697178985e-06
aI0
aF6.162685644924882
aI13
aa(lp520
g493
ag28
aS'1011'
p521
aF0.1254393746111798
aF0.0005234764095767275
aF0.5950392711491715
aF0.08072487145167057
aF0.0027332571859553186
aF1.338790863338957e-05
aF0.9582925063714167
aF0.028545711183542932
aF0.017529638103266867
aF0.0005686273893437939
aF3.6494918198570755e-12
aF1.2471505273185803e-05
aF0.1254393746111798
aF0.0005234764095767275
aF0.0027332571859553186
aF1.338790863338957e-05
aF0.0008594177376054249
aF5.53020530183972e-06
aI0
aF7.5765637170446904
aI13
aa(lp522
g493
ag28
aS'1631'
p523
aF0.12441425979044718
aF0.00046598633400075744
aF0.5812672238457054
aF0.07573662766197825
aF0.0027896089171931824
aF1.4899120222970326e-05
aF0.9668956771650667
aF0.021124803379182655
aF0.0179091771348775
aF0.0004919252028431381
aF1.7783108319235907e-13
aF9.563027657847058e-06
aF0.12441425979044718
aF0.00046598633400075744
aF0.0027896089171931824
aF1.4899120222970326e-05
aF0.0008699682775868903
aF5.675095883854861e-06
aI0
aF22.08004037877891
aI13
aa(lp524
g493
ag28
aS'1671'
p525
aF0.12486042828316438
aF0.0005301346886407725
aF0.5556636551011546
aF0.059939407541034995
aF0.0027907601026868783
aF1.6546767406996335e-05
aF0.9540627623242737
aF0.021506579481276822
aF0.017824440825124313
aF0.0004974293570778546
aF1.232930424421852e-12
aF2.0906119981864423e-05
aF0.12486042828316438
aF0.0005301346886407725
aF0.0027907601026868783
aF1.6546767406996335e-05
aF0.0008734484129042944
aF6.369679323330823e-06
aI0
aF7.362691227760742
aI13
aa(lp526
g493
ag28
aS'1711'
p527
aF0.12419565292607167
aF0.00041153813347514134
aF1.425290483223605
aF0.06187476807756065
aF0.0027734703912578058
aF1.570260249369017e-05
aF0.14412302900191265
aF0.041408058552893645
aF0.018132231031967636
aF0.0004911166596232162
aF2.367286922044798e-12
aF1.5106808244137184e-05
aF0.12419565292607167
aF0.00041153813347514134
aF0.0027734703912578058
aF1.570260249369017e-05
aF0.0008634155441403388
aF5.664108544795042e-06
aI0
aF12.976727717459413
aI13
aa(lp528
g493
ag28
aS'1751'
p529
aF0.12212762280014325
aF0.0010853674459339337
aF0.3639323103024381
aF0.09938045177445975
aF0.0027939300005053683
aF2.6993356693948145e-05
aF0.0579276927577439
aF0.01554547457156899
aF0.017236823187905075
aF0.0005577660216500517
aF9.495420215173689e-06
aF1.4703374705657408e-06
aF0.12212762280014325
aF0.0010853674459339337
aF0.0027939300005053683
aF2.6993356693948145e-05
aF0.0008553017466295564
aF1.1227762871123801e-05
aI0
aF20.979293668445457
aI13
aa(lp530
g493
ag28
aS'1791'
p531
aF0.12458440762619649
aF0.0004283192133734977
aF1.5980923925225363
aF0.14904185080264398
aF0.0027635413410954128
aF1.2242194340430232e-05
aF0.05266579323342957
aF0.028947558467131596
aF0.01826138619330015
aF0.0004551024997383566
aF3.281819260791963e-15
aF2.554694655779732e-06
aF0.12458440762619649
aF0.0004283192133734977
aF0.0027635413410954128
aF1.2242194340430232e-05
aF0.0008630174785796912
aF4.8393425425089465e-06
aI0
aF13.75475590970535
aI13
aa(lp532
g493
ag28
aS'1831'
p533
aF0.12554725011199264
aF0.0005282401332042493
aF2.074035631328539
aF0.43128285700862146
aF0.002766271525732292
aF1.3683097610021639e-05
aF0.020668816154066627
aF0.013251776508755447
aF0.018358565178188502
aF0.0004858964301792083
aF3.518559332782445e-12
aF3.0008527437596638e-05
aF0.12554725011199264
aF0.0005282401332042493
aF0.002766271525732292
aF1.3683097610021639e-05
aF0.0008705464428822379
aF5.653190647483744e-06
aI0
aF15.964895438616098
aI13
aa(lp534
g493
ag28
aS'1871'
p535
aF0.12601240804030908
aF0.000501063570080298
aF1.6183072963784415
aF0.1487627481939947
aF0.0027276799212417584
aF1.3732140383692758e-05
aF0.055753391598381274
aF0.02973681617915061
aF0.018578053448040213
aF0.0005097173463152034
aF5.612082465411561e-12
aF6.0423163912557695e-05
aF0.12601240804030908
aF0.000501063570080298
aF0.0027276799212417584
aF1.3732140383692758e-05
aF0.0008615820686967734
aF5.52729138230678e-06
aI0
aF21.397489565920523
aI13
aa(lp536
g493
ag28
aS'2211'
p537
aF0.12516439167153484
aF0.000553054201662374
aF2.158531544889014
aF0.6586489357245521
aF0.002745980671672781
aF1.3982954132455393e-05
aF0.012722648902609268
aF0.010957215798009345
aF0.018353720324855126
aF0.0005052918910789566
aF6.032963018043347e-13
aF3.948382808383611e-05
aF0.12516439167153484
aF0.000553054201662374
aF0.002745980671672781
aF1.3982954132455393e-05
aF0.0008615256321437571
aF5.808385675075579e-06
aI0
aF19.132397474245607
aI13
aa(lp538
g493
ag28
aS'2251'
p539
aF0.12368287634917041
aF0.002147311847726971
aF1.931663027579442
aF1.5135572114810136
aF0.002783091449172851
aF2.0804587561868435e-05
aF0.017901205847251966
aF0.0245909258264351
aF0.018351779307283107
aF0.0005059372552854783
aF2.6707672225440016e-06
aF2.0395631967182748e-05
aF0.12368287634917041
aF0.002147311847726971
aF0.002783091449172851
aF2.0804587561868435e-05
aF0.0008628334786428493
aF1.6309611664406583e-05
aI0
aF14.146768485912782
aI13
aa(lp540
g493
ag28
aS'2291'
p541
aF0.12555910545688348
aF0.0005918843956712865
aF2.014801374280761
aF0.5387705416235703
aF0.0027577359526874106
aF1.6983715664455577e-05
aF0.01645791381210071
aF0.013902982147219911
aF0.018210615254065112
aF0.0005384166295139585
aF1.6425616422566237e-12
aF4.78732921454933e-05
aF0.12555910545688348
aF0.0005918843956712865
aF0.0027577359526874106
aF1.6983715664455577e-05
aF0.0008679422470771891
aF6.731434302160832e-06
aI0
aF11.29280336264
aI13
aa(lp542
g493
ag28
aS'2331'
p543
aF0.126738894225431
aF0.0021334259351495372
aF0.24373605601739778
aF0.21655726028260214
aF0.0027626520247955324
aF1.4609194715917064e-05
aF0.9927734348742266
aF0.004876633929136898
aF0.0176709949430806
aF0.0005412499872123587
aF3.146218230387632e-11
aF0.00041844881490479607
aF0.126738894225431
aF0.0021334259351495372
aF0.0027626520247955324
aF1.4609194715917064e-05
aF0.0008776594508857586
aF1.548570224356597e-05
aI0
aF12.290778514580133
aI13
aa(lp544
g493
ag28
aS'2371'
p545
aF0.12367196876410559
aF0.0007011597309660958
aF0.7929388110138732
aF0.11270537115407397
aF0.0027752915921832357
aF1.507861948119851e-05
aF0.7665736122642884
aF0.7550077861096727
aF0.01892234401403104
aF0.0004948982011092898
aF3.324371762731815e-06
aF3.3165732260426183e-06
aF0.12367196876410559
aF0.0007011597309660958
aF0.0027752915921832357
aF1.507861948119851e-05
aF0.0008603394324472242
aF6.755864859028069e-06
aI0
aF7.4792736400934965
aI13
aa(lp546
g493
ag28
aS'2411'
p547
aF0.12563596182755785
aF0.0005939541375515697
aF0.5825251655766812
aF0.10458769000878243
aF0.002732850346418527
aF1.6437105298677552e-05
aF0.9681821339324473
aF0.026076226599731633
aF0.018036214227745415
aF0.000527727448954349
aF1.5938976410945215e-09
aF0.00030630997043482906
aF0.12563596182755785
aF0.0005939541375515697
aF0.002732850346418527
aF1.6437105298677552e-05
aF0.00086063648470044
aF6.584059663729312e-06
aI0
aF25.753364013690195
aI13
aa(lp548
g493
ag28
aS'2451'
p549
aF0.12538297999254244
aF0.0005443236981584758
aF0.5683153426867328
aF0.08066256356234247
aF0.0027635210050290008
aF1.6470187861856696e-05
aF0.9625371237500169
aF0.023930931899385555
aF0.017675949900193652
aF0.0004907590992789817
aF5.03320163325327e-13
aF1.7259451207574103e-05
aF0.12538297999254244
aF0.0005443236981584758
aF0.0027635210050290008
aF1.6470187861856696e-05
aF0.0008685429344161276
aF6.404093570921839e-06
aI0
aF10.337959268899167
aI13
aa(lp550
g493
ag28
aS'2674'
p551
aF0.12155172208103816
aF0.0005365967301695061
aF0.661089089470568
aF0.0593443945547098
aF0.002935450225800396
aF1.6416410468338572e-05
aF0.9265616318318457
aF0.0457672977950534
aF0.018828215784409828
aF0.0005049259145304785
aF2.0438001291367415e-12
aF3.287450957201732e-06
aF0.12155172208103816
aF0.0005365967301695061
aF0.002935450225800396
aF1.6416410468338572e-05
aF0.0008943876033148805
aF6.372408933038849e-06
aI0
aF7.1699239347015435
aI13
aa(lp552
g493
ag28
aS'sum'
p553
aF0.12519710138100412
aF9.96552247187624e-05
aF0.5774492365787337
aF0.01607478745796498
aF9.025179854500843e-05
aF1.0743885688009385e-07
aF0.9613146977367033
aF0.005079395649343732
aF0.0181552194068978
aF9.7267598027589e-05
aF1.6653345369377347e-18
aF4.176185378290675e-08
aF0.12519710138100412
aF9.96552247187624e-05
aF9.025179854500843e-05
aF1.0743885688009385e-07
aF2.832305355272843e-05
aF4.0559652509818347e-08
aI0
aF42.23157166496991
aI13
aa(lp554
S'8'
p555
ag91
ag27
aF0.13352183582688779
aF0.0005420239674245676
aF0.9999992155812694
aF0.3171223212203022
aF0.0021567848337220976
aF1.2255375120639274e-05
aF0.8187010387465468
aF0.5557752352658141
aF0.010339832580533365
aF0.0005994621169027716
aF8.830705573188436e-06
aF1.4708306169242121e-06
aF0.13352183582688779
aF0.0005420239674245676
aF0.0021567848337220976
aF1.2255375120639274e-05
aF0.0007218534726186149
aF5.0409432773869675e-06
aI0
aF11.541359076912508
aI13
aa(lp556
g555
ag91
aS'51'
p557
aF0.1144289918579524
aF0.00035704013691914403
aF1.0000431417088325
aF5.281091451331544
aF0.002678642756726759
aF1.2590421234241972e-05
aF0.9999741685916456
aF0.6794555032116922
aF0.008664521890698367
aF0.0004237170313457749
aF4.7552037965870044e-06
aF7.79851613332272e-07
aF0.1144289918579524
aF0.00035704013691914403
aF0.002678642756726759
aF1.2590421234241972e-05
aF0.0007683176370562219
aF4.3345911911327155e-06
aI0
aF19.8354253312207
aI13
aa(lp558
g555
ag91
aS'91'
p559
aF0.11238492005909909
aF0.0011951746530692916
aF9.99988989947654
aF9.397101653864823
aF0.002669763193451462
aF2.833606530947821e-05
aF0.9638634065268534
aF0.012230391145585828
aF0.00836192147085289
aF0.0005164103175307413
aF6.874362911913901e-06
aF1.001929525871748e-06
aF0.11238492005909909
aF0.0011951746530692916
aF0.002669763193451462
aF2.833606530947821e-05
aF0.000752091562646239
aF1.1300071853158838e-05
aI0
aF13.122623565952662
aI13
aa(lp560
g555
ag91
aS'131'
p561
aF0.11437178342822048
aF0.000532932657834575
aF1.9395162026153208
aF0.323113825547664
aF0.002659614068748394
aF1.862929051962988e-05
aF0.021109449542238368
aF0.013929192408371427
aF0.009433298470410053
aF0.0005446983408373146
aF6.544718100798264e-12
aF1.0189269952726453e-05
aF0.11437178342822048
aF0.000532932657834575
aF0.002659614068748394
aF1.862929051962988e-05
aF0.0007624782311051511
aF6.414590194782581e-06
aI0
aF10.246129403974278
aI13
aa(lp562
g555
ag91
aS'171'
p563
aF0.11624372679707651
aF0.0005519275386470669
aF2.5035444526401274
aF0.7087892404726162
aF0.0025879414436350452
aF1.5927838241475796e-05
aF0.009345062157998962
aF0.00590898023545941
aF0.00953411383291739
aF0.0005213489999649777
aF2.0462187499958872e-13
aF1.5334602935818398e-05
aF0.11624372679707651
aF0.0005519275386470669
aF0.0025879414436350452
aF1.5927838241475796e-05
aF0.0007540738921881984
aF5.861596429792782e-06
aI0
aF16.635028580697455
aI13
aa(lp564
g555
ag91
aS'211'
p565
aF0.11425274208469177
aF0.0003948925923299354
aF1.0000142234059626
aF0.006320558654819064
aF0.002657098249151561
aF1.4457965561646751e-05
aF0.006166598273064705
aF0.9622388430206423
aF0.009538796639518541
aF0.0005172102480261548
aF6.433945101401162e-06
aF8.737286189181012e-07
aF0.11425274208469177
aF0.0003948925923299354
aF0.002657098249151561
aF1.4457965561646751e-05
aF0.0007609641190412896
aF4.905320371476919e-06
aI0
aF12.450187799845635
aI13
aa(lp566
g555
ag91
aS'251'
p567
aF0.11424523011438191
aF0.0004337600217906704
aF0.9964736845367937
aF5.6402878346961085
aF0.0026356105973510888
aF1.4029123808560664e-05
aF0.9998300911464
aF0.9313236792673459
aF0.008845161345738093
aF0.0004937647969793885
aF8.828338750924703e-06
aF9.643510931450772e-07
aF0.11424523011438191
aF0.0004337600217906704
aF0.0026356105973510888
aF1.4029123808560664e-05
aF0.0007547606608236487
aF4.934811286301836e-06
aI0
aF11.224015538380499
aI13
aa(lp568
g555
ag91
aS'291'
p569
aF0.11496552341523514
aF0.0006732166060371903
aF0.320180085250237
aF0.15102498636652287
aF0.002684817241060033
aF1.632529658335399e-05
aF0.9936051137890538
aF0.004273379249798648
aF0.009824754935299764
aF0.0004955381160254128
aF1.9225887548657283e-12
aF8.190515355479183e-05
aF0.11496552341523514
aF0.0006732166060371903
aF0.002684817241060033
aF1.632529658335399e-05
aF0.0007736994411375148
aF6.531426975471253e-06
aI0
aF29.817947945904244
aI13
aa(lp570
g555
ag91
aS'771'
p571
aF0.11368547794925157
aF0.00046310588142952475
aF0.3890845778882335
aF0.10812405442287543
aF0.0027450775570690197
aF1.6475004979190407e-05
aF0.99288469283744
aF0.0044201813858767425
aF0.009369302166509016
aF0.0004536803856501316
aF1.4799272918253337e-15
aF1.261400091156578e-05
aF0.11368547794925157
aF0.00046310588142952475
aF0.0027450775570690197
aF1.6475004979190407e-05
aF0.0007822571570231457
aF5.67413286914408e-06
aI0
aF18.566089386427638
aI13
aa(lp572
g555
ag91
aS'811'
p573
aF0.1148481151450639
aF5.184094435408086e-06
aF1.0691366070471668
aF8.036945378667761
aF0.0026532856781951728
aF1.9114235998564204e-07
aF0.9999999999935554
aF0.21138877440253484
aF0.009515360571109457
aF8.166105909559152e-06
aF7.231285621307481e-06
aF1.3791048808497934e-08
aF0.1148481151450639
aF5.184094435408086e-06
aF0.0026532856781951728
aF1.9114235998564204e-07
aF0.0007638319477581596
aF6.493580283408163e-08
aI0
aF10.142622459611445
aI13
aa(lp574
g555
ag91
aS'851'
p575
aF0.11492763386833274
aF0.00047977643277750335
aF0.42249731369589727
aF0.09775125849254263
aF0.002682013571591466
aF1.4034191350996037e-05
aF0.9890956688034531
aF0.006402946563877854
aF0.009844791798990631
aF0.0004734192183900969
aF1.0416439932825483e-12
aF1.474300157266878e-05
aF0.11492763386833274
aF0.00047977643277750335
aF0.002682013571591466
aF1.4034191350996037e-05
aF0.0007726367670922264
aF5.17196347935665e-06
aI0
aF31.23065367149189
aI13
aa(lp576
g555
ag91
aS'891'
p577
aF0.11327240547739023
aF0.0015776476778690653
aF0.5087349235806656
aF0.5133210417705939
aF0.002687655004659622
aF1.792121132044959e-05
aF0.9888296363724494
aF0.019942262516331244
aF0.008753043162900716
aF0.0004970621854844175
aF3.980628725157587e-06
aF1.0510259878974693e-05
aF0.11327240547739023
aF0.0015776476778690653
aF0.002687655004659622
aF1.792121132044959e-05
aF0.0007631107616991716
aF1.1783786666851428e-05
aI0
aF9.62409377731256
aI13
aa(lp578
g555
ag91
aS'931'
p579
aF0.11257378995876727
aF0.00032288933797430824
aF0.9999994462741392
aF0.006049427128653917
aF0.0027394728075465827
aF1.314590846851569e-05
aF0.9814472746776062
aF0.7379036761270652
aF0.009289866874562043
aF0.0004235552973530334
aF5.822220708300852e-06
aF7.971157107516947e-07
aF0.11257378995876727
aF0.00032288933797430824
aF0.0027394728075465827
aF1.314590846851569e-05
aF0.0007730262035003796
aF4.321649202429862e-06
aI0
aF14.423844340721109
aI13
aa(lp580
g555
ag91
aS'971'
p581
aF0.1137486132482318
aF0.0004506192241913432
aF0.45249681806579267
aF0.10947728304571752
aF0.0027031822345326482
aF1.5321395249277532e-05
aF0.9908616934778368
aF0.006752664730112434
aF0.008969735191054325
aF0.0005077881116786369
aF3.2579594577697435e-12
aF1.8989316767367427e-05
aF0.1137486132482318
aF0.0004506192241913432
aF0.0027031822345326482
aF1.5321395249277532e-05
aF0.0007707461596347785
aF5.329807384085362e-06
aI0
aF34.66605774286545
aI13
aa(lp582
g555
ag91
aS'1011'
p583
aF0.11396315565970441
aF0.0012416956757417903
aF1.529364731520317
aF0.7148143491250809
aF0.0026997052643355983
aF1.3184147629893405e-05
aF0.06007528327945488
aF0.1262083918036098
aF0.008748797810827677
aF0.0005391809699245718
aF1.7868650375091334e-06
aF7.521373922741714e-06
aF0.11396315565970441
aF0.0012416956757417903
aF0.0026997052643355983
aF1.3184147629893405e-05
aF0.0007712066291023696
aF9.208185249266562e-06
aI0
aF14.59905311316705
aI13
aa(lp584
g555
ag91
aS'1631'
p585
aF0.11190078592715996
aF0.0006386503960744817
aF0.2988425582332801
aF0.15426533510454782
aF0.0028076813260758966
aF1.720853529937937e-05
aF0.9950496301649036
aF0.0033093304661394596
aF0.009188669360821744
aF0.00047726382484941556
aF7.21988524521322e-12
aF7.694597956081712e-05
aF0.11190078592715996
aF0.0006386503960744817
aF0.0028076813260758966
aF1.720853529937937e-05
aF0.0007875368504555608
aF6.595541713296643e-06
aI0
aF25.29157186058565
aI13
aa(lp586
g555
ag91
aS'1671'
p587
aF0.11295546010339469
aF0.0004457001617649946
aF0.5395270760966525
aF0.04451824100965368
aF0.0027961285536519964
aF1.559351166994399e-05
aF0.9668349521062883
aF0.012577227733248986
aF0.0092390025682411
aF0.0004819724200752621
aF3.517186542012496e-15
aF3.6877089317152725e-06
aF0.11295546010339469
aF0.0004457001617649946
aF0.0027961285536519964
aF1.559351166994399e-05
aF0.0007916884291336359
aF5.408473170768239e-06
aI0
aF30.4801157654564
aI13
aa(lp588
g555
ag91
aS'1711'
p589
aF0.11260864572870057
aF0.0005167987089069585
aF1.8667257821837588
aF0.24361389318024385
aF0.0027812172675999954
aF1.9186185588953306e-05
aF0.02760357800300539
aF0.015496861946325241
aF0.010216684368711003
aF0.0005112200826828452
aF2.3447432884182717e-12
aF2.1266172691485064e-05
aF0.11260864572870057
aF0.0005167987089069585
aF0.0027812172675999954
aF1.9186185588953306e-05
aF0.0007850486783866785
aF6.504595362330617e-06
aI0
aF18.57438656660866
aI13
aa(lp590
g555
ag91
aS'1751'
p591
aF0.11327560129225715
aF0.0004938169872333734
aF2.1129788313811395
aF0.43826150128863184
aF0.0027289115542240335
aF1.7387476760212907e-05
aF0.014297501755431707
aF0.009595353942301654
aF0.009375149435835811
aF0.0005036940483955135
aF1.6907586442016508e-14
aF2.470713058266738e-05
aF0.11327560129225715
aF0.0004938169872333734
aF0.0027289115542240335
aF1.7387476760212907e-05
aF0.0007748466692150719
aF5.981979350225386e-06
aI0
aF13.834192548779766
aI13
aa(lp592
g555
ag91
aS'1791'
p593
aF0.11231497989517202
aF5.530538312754467e-07
aF1.0117774526349528
aF5.121669574295013
aF0.002742389057704557
aF2.4599878099395428e-08
aF5.828670879282072e-15
aF0.04325945624650451
aF0.009057883976722428
aF9.611524179927451e-07
aF7.432604676297361e-06
aF1.407237483208573e-09
aF0.11231497989517202
aF5.530538312754467e-07
aF0.002742389057704557
aF2.4599878099395428e-08
aF0.0007720700136643648
aF7.900514420944964e-09
aI0
aF14.597468949175964
aI13
aa(lp594
g555
ag91
aS'1831'
p595
aF0.1125827340205029
aF0.0005085883114565095
aF2.338417747102657
aF0.5431004283499721
aF0.0027710791011082165
aF1.6719046408667382e-05
aF0.011159138557434556
aF0.006980474058646519
aF0.009777349979684583
aF0.0004678256853247426
aF6.0258836809268245e-12
aF2.326052922561911e-05
aF0.1125827340205029
aF0.0005085883114565095
aF0.0027710791011082165
aF1.6719046408667382e-05
aF0.0007820070138364813
aF5.8941473677943615e-06
aI0
aF29.986270009648404
aI13
aa(lp596
g555
ag91
aS'1871'
p597
aF0.11254743731146062
aF0.0005656929910806899
aF0.7185535809067197
aF0.34872821203798504
aF0.002732334791387717
aF1.855584390977362e-05
aF0.05230351468888844
aF0.1161691240648462
aF0.010629694779875888
aF0.0004299471490324447
aF7.790717865102658e-06
aF1.0107544244783445e-06
aF0.11254743731146062
aF0.0005656929910806899
aF0.002732334791387717
aF1.855584390977362e-05
aF0.0007708315055957341
aF6.512672032001511e-06
aI0
aF20.88068607316835
aI13
aa(lp598
g555
ag91
aS'2211'
p599
aF0.11280370142076826
aF0.00034656428857660223
aF1.0000023987783
aF0.006340823746164181
aF0.00278843045502612
aF1.422895385577239e-05
aF0.9433591675426836
aF0.6802880868643814
aF0.009446415483234012
aF0.00044045460847012857
aF5.971012764292571e-06
aF7.634193699351812e-07
aF0.11280370142076826
aF0.00034656428857660223
aF0.00278843045502612
aF1.422895385577239e-05
aF0.0007884480836797608
aF4.69626643991854e-06
aI0
aF11.620136251966873
aI13
aa(lp600
g555
ag91
aS'2251'
p601
aF0.11304510488909375
aF0.0005958914421742376
aF1.4470327399376297
aF0.8481512912412021
aF0.0027507783644506326
aF1.571149673017659e-05
aF0.02770375398909153
aF0.0851495479590045
aF0.009795655850815517
aF0.00042599570430820185
aF4.405485128288755e-06
aF3.4799777027616494e-06
aF0.11304510488909375
aF0.0005958914421742376
aF0.0027507783644506326
aF1.571149673017659e-05
aF0.0007794662135662038
aF6.058278241107808e-06
aI0
aF27.42076069049041
aI13
aa(lp602
g555
ag91
aS'2291'
p603
aF0.11320121019338002
aF0.0005774071548686992
aF0.34549019622901467
aF0.12008372894277564
aF0.002761805660608971
aF1.4450475825416448e-05
aF0.9924978319810156
aF0.004502099392284298
aF0.008045600593623244
aF0.0004726956650985424
aF3.291321104548217e-12
aF8.394818219499306e-05
aF0.11320121019338002
aF0.0005774071548686992
aF0.002761805660608971
aF1.4450475825416448e-05
aF0.0007836716198274885
aF5.7263720373943735e-06
aI0
aF28.33715894050523
aI13
aa(lp604
g555
ag91
aS'2331'
p605
aF0.11312397593631121
aF2.289357752156476e-08
aF0.999979776897947
aF0.7992760416785766
aF0.0027021239185205407
aF8.99218062858087e-10
aF0.9999999290405723
aF0.5813040698378088
aF0.009388884931893047
aF3.958500876294171e-08
aF7.026102701224724e-06
aF6.291040827171665e-11
aF0.11312397593631121
aF2.289357752156476e-08
aF0.0027021239185205407
aF8.99218062858087e-10
aF0.0007662136006944798
aF2.984299875064981e-10
aI0
aF14.772197514749148
aI13
aa(lp606
g555
ag91
aS'2371'
p607
aF0.11169172574796321
aF1.35190299828044e-07
aF1.0016451889157334
aF6.775471356653727
aF0.0027677062631554154
aF5.9663381162672335e-09
aF3.185229857649574e-13
aF0.03816369563800345
aF0.010366883333821407
aF2.338848062878674e-07
aF5.796195040074781e-06
aF3.617305843751376e-10
aF0.11169172574796321
aF1.35190299828044e-07
aF0.0027677062631554154
aF5.9663381162672335e-09
aF0.0007748737200384354
aF1.915689582368569e-09
aI0
aF24.087760000734125
aI13
aa(lp608
g555
ag91
aS'2411'
p609
aF0.11361989878658621
aF0.00040878082659871805
aF0.45140748024553734
aF0.06286676339442077
aF0.0027410370667007213
aF1.4561831619057213e-05
aF0.9898220781672219
aF0.00432010221975887
aF0.00914776519545325
aF0.0004953290865571156
aF1.4648493529278995e-12
aF2.809682479392034e-05
aF0.11361989878658621
aF0.00040878082659871805
aF0.0027410370667007213
aF1.4561831619057213e-05
aF0.0007806551709070208
aF5.008804727232097e-06
aI0
aF18.09320318319287
aI13
aa(lp610
g555
ag91
aS'2451'
p611
aF0.11112626748819307
aF0.0004164031194182173
aF0.5191351495055937
aF0.0611739358838958
aF0.0028079764237279098
aF1.6011283381799166e-05
aF0.979509364410357
aF0.009825237639243811
aF0.008329435019509434
aF0.0004620443211697047
aF7.832068327218167e-15
aF7.723400421716931e-06
aF0.11112626748819307
aF0.0004164031194182173
aF0.0028079764237279098
aF1.6011283381799166e-05
aF0.0007821681343219365
aF5.3368008154692185e-06
aI0
aF27.119164555997468
aI13
aa(lp612
g555
ag91
aS'2674'
p613
aF0.11062742303758055
aF0.00043647940866449475
aF3.0276915879727184
aF0.8586956412676865
aF0.002881006180477621
aF1.8098028910765304e-05
aF0.004636890646795011
aF0.0021952146764933067
aF0.009223128422452305
aF0.000482730802223796
aF8.898256576017615e-12
aF3.00363861322156e-05
aF0.11062742303758055
aF0.00043647940866449475
aF0.002881006180477621
aF1.8098028910765304e-05
aF0.0007989082761066939
aF5.926394309769294e-06
aI0
aF23.19096382763493
aI13
aa(lp614
g555
ag91
aS'sum'
p615
aF0.11347003348233803
aF9.291558218387058e-05
aF0.4470523189682277
aF0.017796663823615444
aF9.009681217422602e-05
aF1.1451344892114918e-07
aF0.9866901441728442
aF0.001538732931403386
aF0.00921602375936301
aF9.586787257618157e-05
aF1.6235346400605978e-14
aF8.944568886892768e-08
aF0.11347003348233803
aF9.291558218387058e-05
aF9.009681217422602e-05
aF1.1451344892114918e-07
aF2.56259834975983e-05
aF3.874507131849683e-08
aI0
aF41.57670094258947
aI13
aa(lp616
S'9'
p617
ag28
ag27
aF0.13407885105470768
aF0.0011795323322654533
aF0.44776565203158036
aF0.3061688028034534
aF0.0022018120568556964
aF1.2548780244439834e-05
aF0.9928321192003846
aF0.006655142298021777
aF-0.022334154951721943
aF0.0005659830627973867
aF1.8259442231050028e-06
aF4.5850867397381755e-06
aF0.13407885105470768
aF0.0011795323322654533
aF0.0022018120568556964
aF1.2548780244439834e-05
aF0.0007399978526331056
aF7.75673536900097e-06
aI0
aF28.190485616007678
aI19
aa(lp618
g617
ag28
aS'51'
p619
aF0.12758135916977703
aF0.0004823786607902722
aF0.6524104713678118
aF0.10627014987146904
aF0.002682529689733005
aF1.2286732826795365e-05
aF0.9586201042847732
aF0.036126341978793386
aF-0.0198117850507743
aF0.00048236039937005833
aF2.8480210844850084e-06
aF1.2030755332487211e-06
aF0.12758135916977703
aF0.0004823786607902722
aF0.002682529689733005
aF1.2286732826795365e-05
aF0.0008578704254786928
aF5.095095223153075e-06
aI0
aF30.470801513370958
aI19
aa(lp620
g617
ag28
aS'91'
p621
aF0.1272367200457671
aF0.0006552826538666601
aF0.587006630080232
aF0.1413105371098034
aF0.0026638262442991896
aF1.7225322465509642e-05
aF0.9737175864755794
aF0.024643843903766338
aF-0.019967069185358826
aF0.0005448476849353829
aF3.1870636754766093e-06
aF2.086546032007419e-06
aF0.1272367200457671
aF0.0006552826538666601
aF0.0026638262442991896
aF1.7225322465509642e-05
aF0.0008495878495390633
aF7.023256280155094e-06
aI0
aF21.506243299107314
aI19
aa(lp622
g617
ag28
aS'131'
p623
aF0.12639712942200787
aF0.0006152161921130651
aF0.7231566801397368
aF0.093499662733805
aF0.0027133362980597013
aF1.560844716379066e-05
aF0.898133600805071
aF0.11183402727402492
aF-0.019853142619668664
aF0.0006157823553535962
aF4.569590071473173e-06
aF9.687068751876305e-07
aF0.12639712942200787
aF0.0006152161921130651
aF0.0027133362980597013
aF1.560844716379066e-05
aF0.0008596680173537508
aF6.477930586784477e-06
aI0
aF12.773776624390434
aI19
aa(lp624
g617
ag28
aS'171'
p625
aF0.12831005816630794
aF0.0005249526579305333
aF0.7667549235613653
aF0.11655513936888662
aF0.0026211150870076127
aF1.5828543816016373e-05
aF0.9048494301273093
aF0.14048488761941463
aF-0.0198429538962442
aF0.0005274328534547334
aF3.9836104491686175e-06
aF8.531973749348334e-07
aF0.12831005816630794
aF0.0005249526579305333
aF0.0026211150870076127
aF1.5828543816016373e-05
aF0.0008430177642142095
aF6.149200946035311e-06
aI0
aF21.732725662874298
aI19
aa(lp626
g617
ag28
aS'211'
p627
aF0.12727373477691825
aF0.00039655990325874736
aF0.4802393606939661
aF0.031657005589517506
aF0.002668586021563343
aF1.3158808956312404e-05
aF0.9814654450795096
aF0.004930514361406235
aF-0.019105211448273565
aF0.0004977143129535625
aF1.206940103415377e-13
aF3.5370323224756525e-06
aF0.12727373477691825
aF0.00039655990325874736
aF0.002668586021563343
aF1.3158808956312404e-05
aF0.0008513535070689504
aF4.96588246093528e-06
aI0
aF17.19067382520933
aI19
aa(lp628
g617
ag28
aS'251'
p629
aF0.12587558906117996
aF0.0005986795463623709
aF0.6596956338899805
aF0.09818428514762145
aF0.0027169764540364394
aF1.4313645856658692e-05
aF0.9320740360872428
aF0.061091594939642
aF-0.020183819256753308
aF0.0004965789657995634
aF3.5149957361269025e-06
aF1.263864346054966e-06
aF0.12587558906117996
aF0.0005986795463623709
aF0.0027169764540364394
aF1.4313645856658692e-05
aF0.0008572694056720605
aF6.084492942751535e-06
aI0
aF51.880376499896556
aI19
aa(lp630
g617
ag28
aS'291'
p631
aF0.12691655727664197
aF0.0005593816889777158
aF0.6510324924070221
aF0.12779920661871708
aF0.0027076542701452966
aF1.492457658905529e-05
aF0.9611872240357024
aF0.042249338916226564
aF-0.01972352930487128
aF0.0005395309868920001
aF3.6245842171611643e-06
aF1.2655601527153395e-06
aF0.12691655727664197
aF0.0005593816889777158
aF0.0027076542701452966
aF1.492457658905529e-05
aF0.0008613931767684497
aF6.079259586673253e-06
aI0
aF23.204019199055544
aI19
aa(lp632
g617
ag28
aS'771'
p633
aF0.12668037427392917
aF0.0004980852880899183
aF1.5687720209877898
aF0.2504851147786902
aF0.0027028735290449803
aF1.3613032631597938e-05
aF0.039987483107491284
aF0.032495727097317795
aF-0.019783577517474914
aF0.0004609358707715116
aF2.5305209059417466e-06
aF1.3462077929657368e-06
aF0.12668037427392917
aF0.0004980852880899183
aF0.0027028735290449803
aF1.3613032631597938e-05
aF0.0008582721037488815
aF5.483924333226072e-06
aI0
aF25.384618972219968
aI19
aa(lp634
g617
ag28
aS'811'
p635
aF0.1275133255544504
aF0.0005098735623846375
aF0.6370984928365511
aF0.06779369166617566
aF0.0026771007851312395
aF1.2291051806007178e-05
aF0.9338448374351824
aF0.036872374235522754
aF-0.01982363088803458
aF0.0004533348070895315
aF2.1892942755447066e-06
aF1.3320999676416646e-06
aF0.1275133255544504
aF0.0005098735623846375
aF0.0026771007851312395
aF1.2291051806007178e-05
aF0.0008556777276477628
aF5.2096411936617715e-06
aI0
aF31.496032190063783
aI19
aa(lp636
g617
ag28
aS'851'
p637
aF0.12732313370476245
aF0.0005976490982198052
aF1.5623238893141531
aF0.17638457268256114
aF0.002665763104564622
aF1.4854201808215664e-05
aF0.06900791596916661
aF0.04251754766413976
aF-0.019681573395576715
aF0.0005055107352941938
aF2.393878224619117e-06
aF1.4984492196992717e-06
aF0.12732313370476245
aF0.0005976490982198052
aF0.002665763104564622
aF1.4854201808215664e-05
aF0.0008507830051158574
aF6.198629021978522e-06
aI0
aF18.24103432408125
aI19
aa(lp638
g617
ag28
aS'891'
p639
aF0.1271606137050079
aF0.0005844714973065273
aF0.6576987763700718
aF0.131011264735079
aF0.002675184798372903
aF1.575043213524526e-05
aF0.9563159406006247
aF0.049014770970006005
aF-0.01939758420823465
aF0.000517823427758919
aF4.114354961371469e-06
aF1.3577113010793119e-06
aF0.1271606137050079
aF0.0005844714973065273
aF0.002675184798372903
aF1.575043213524526e-05
aF0.0008527001459787727
aF6.36905357343158e-06
aI0
aF16.502167727807635
aI19
aa(lp640
g617
ag28
aS'931'
p641
aF0.12530244754037975
aF0.000569232203021362
aF0.5699120280378991
aF0.11121138877399533
aF0.002765290869959567
aF1.4760863343570626e-05
aF0.9741860005523526
aF0.018416279236595445
aF-0.019026458496037166
aF0.0005044417973947846
aF2.2798585583594378e-06
aF1.83881270255537e-06
aF0.12530244754037975
aF0.000569232203021362
aF0.002765290869959567
aF1.4760863343570626e-05
aF0.000868540967426012
aF6.087900508837362e-06
aI0
aF27.195948434143364
aI19
aa(lp642
g617
ag28
aS'971'
p643
aF0.12559493147634243
aF0.0007841731265783863
aF1.7454875189338914
aF0.5934874602308883
aF0.0027444408598187096
aF1.7848031537541238e-05
aF0.021981655426543956
aF0.028119031890647794
aF-0.020547039327186805
aF0.0005548391113574827
aF3.1291853111509174e-06
aF2.3315176991595132e-06
aF0.12559493147634243
aF0.0007841731265783863
aF0.0027444408598187096
aF1.7848031537541238e-05
aF0.0008640043401340301
aF7.7893154476198e-06
aI0
aF23.227905801062292
aI19
aa(lp644
g617
ag28
aS'1011'
p645
aF0.12692651847844855
aF0.000850326195590234
aF0.4495561969707613
aF0.1029032090205727
aF0.0027518119019556003
aF1.4559898288728484e-05
aF0.9835240842192562
aF0.005764862343528909
aF-0.01965958958272417
aF0.0005028042967294468
aF3.770761899613007e-07
aF1.037047515358519e-05
aF0.12692651847844855
aF0.000850326195590234
aF0.0027518119019556003
aF1.4559898288728484e-05
aF0.0008755098704286841
aF7.474019937726149e-06
aI0
aF15.208427176888197
aI19
aa(lp646
g617
ag28
aS'1631'
p647
aF0.12441712939253967
aF0.0005284701268817109
aF0.7112830659438958
aF0.08978468044646382
aF0.00280288720911045
aF1.6492095379731352e-05
aF0.918686955989191
aF0.08113585895510861
aF-0.02001878732100515
aF0.000509806629943751
aF2.8399316321547907e-06
aF8.741987418944831e-07
aF0.12441712939253967
aF0.0005284701268817109
aF0.00280288720911045
aF1.6492095379731352e-05
aF0.000874129410945576
aF6.3434875394496205e-06
aI0
aF20.54112978843651
aI19
aa(lp648
g617
ag28
aS'1671'
p649
aF0.12496938889253555
aF0.0005698926656946394
aF0.6219659823714642
aF0.0539210244761964
aF0.002772017971203312
aF1.4578171600115528e-05
aF0.9183223517877518
aF0.03770340791077176
aF-0.02004246793012122
aF0.0005048828984566802
aF2.4709938856493087e-06
aF1.381038003589463e-06
aF0.12496938889253555
aF0.0005698926656946394
aF0.002772017971203312
aF1.4578171600115528e-05
aF0.0008683396292612159
aF6.044387638208133e-06
aI0
aF16.821463400888458
aI19
aa(lp650
g617
ag28
aS'1711'
p651
aF0.12521019179118628
aF0.0009466556476207817
aF0.6760682403759148
aF0.2105497926426696
aF0.0027876792424727614
aF1.9318124373167737e-05
aF0.934432123012092
aF0.12617389627102005
aF-0.020517226188990653
aF0.0005414310768998284
aF3.044520534878914e-06
aF2.3989940954846635e-06
aF0.12521019179118628
aF0.0009466556476207817
aF0.0027876792424727614
aF1.9318124373167737e-05
aF0.0008749282032756682
aF8.97320207740296e-06
aI0
aF18.278300051763466
aI19
aa(lp652
g617
ag28
aS'1751'
p653
aF0.12614691966045383
aF0.0006665499595575663
aF0.576508102748039
aF0.12569011758456383
aF0.002733760320330999
aF1.5629966693088502e-05
aF0.973422805087403
aF0.02284289600354139
aF-0.020086636577627288
aF0.0005948490547979932
aF2.539547118631802e-06
aF1.8208464735469668e-06
aF0.12614691966045383
aF0.0006665499595575663
aF0.002733760320330999
aF1.5629966693088502e-05
aF0.0008644244053368393
aF6.729659526379098e-06
aI0
aF12.212179167291772
aI19
aa(lp654
g617
ag28
aS'1791'
p655
aF0.1252743495748991
aF0.0005102557651981814
aF0.6320102781993653
aF0.09701797066309908
aF0.0027504173465153015
aF1.4728641748348783e-05
aF0.9598244756957729
aF0.03113965090162396
aF-0.01958645471072649
aF0.0004940198500977366
aF3.426562064747785e-06
aF1.2717133790085544e-06
aF0.1252743495748991
aF0.0005102557651981814
aF0.0027504173465153015
aF1.4728641748348783e-05
aF0.000863675677086712
aF5.8108643975929595e-06
aI0
aF26.786228261734653
aI19
aa(lp656
g617
ag28
aS'1831'
p657
aF0.1242038013467126
aF0.0005494633792935971
aF0.7152743739223519
aF0.02986302289284909
aF0.0028107651112109374
aF1.7865717636611966e-05
aF0.810953884039119
aF0.08625584637187078
aF-0.020557924186094152
aF0.0005233827915147602
aF4.548722311952802e-06
aF7.6666659419411e-07
aF0.1242038013467126
aF0.0005494633792935971
aF0.0028107651112109374
aF1.7865717636611966e-05
aF0.0008750832605504405
aF6.776768991524326e-06
aI0
aF26.26984320379777
aI19
aa(lp658
g617
ag28
aS'1871'
p659
aF0.12520247725775493
aF0.000546284601505924
aF1.4747409388383774
aF0.08393333779108592
aF0.0027548374375223235
aF1.5225539016188892e-05
aF0.1301705420980368
aF0.060675106404645573
aF-0.020296624086755848
aF0.000504611284746227
aF3.4992340954043134e-06
aF9.115245928800752e-07
aF0.12520247725775493
aF0.000546284601505924
aF0.0027548374375223235
aF1.5225539016188892e-05
aF0.0008645673536360573
aF6.087900484723932e-06
aI0
aF15.192059665941853
aI19
aa(lp660
g617
ag28
aS'2211'
p661
aF0.12376121238286789
aF0.0005610945506039814
aF0.6949355512051067
aF0.033540959993984876
aF0.0027948544524166283
aF1.6240170580166143e-05
aF0.844041414432557
aF0.06683370534218536
aF-0.019321202679898942
aF0.0005177677928807107
aF3.6482380287761185e-06
aF9.474344428966884e-07
aF0.12376121238286789
aF0.0005610945506039814
aF0.0027948544524166283
aF1.6240170580166143e-05
aF0.0008670291229013992
aF6.390128473266241e-06
aI0
aF19.860967354962014
aI19
aa(lp662
g617
ag28
aS'2251'
p663
aF0.12431445018261116
aF0.0005179256920307199
aF1.4373251071560753
aF0.11136149322806665
aF0.0027682861033605185
aF1.6174026107350966e-05
aF0.11061703618114488
aF0.06537729882577847
aF-0.01954728258719805
aF0.0005033118066404951
aF3.7351651914596664e-06
aF1.065018709761889e-06
aF0.12431445018261116
aF0.0005179256920307199
aF0.0027682861033605185
aF1.6174026107350966e-05
aF0.0008626259531607923
aF6.190134009215248e-06
aI0
aF25.793993667569165
aI19
aa(lp664
g617
ag28
aS'2291'
p665
aF0.12438779953032811
aF0.000624219098205555
aF0.7601674306653516
aF0.19041933726600035
aF0.00277636276150212
aF1.791420741535676e-05
aF0.9276000210507185
aF0.1580780285732188
aF-0.01983595720890921
aF0.00057814387635166
aF4.876481606645999e-06
aF1.0531785168002572e-06
aF0.12438779953032811
aF0.000624219098205555
aF0.00277636276150212
aF1.791420741535676e-05
aF0.0008656531823443039
aF7.076000113768145e-06
aI0
aF22.275360371052635
aI19
aa(lp666
g617
ag28
aS'2331'
p667
aF0.12561038606719613
aF0.0005607477557383558
aF1.478540589592248
aF0.3138919985259261
aF0.0027486702375115286
aF1.3295183737272549e-05
aF0.048508967196538244
aF0.06285256523793659
aF-0.019063008403542445
aF0.0005147080588669329
aF3.489165003087158e-06
aF1.3760121845962648e-06
aF0.12561038606719613
aF0.0005607477557383558
aF0.0027486702375115286
aF1.3295183737272549e-05
aF0.0008654423125014925
aF5.696492700997186e-06
aI0
aF36.469019861829274
aI19
aa(lp668
g617
ag28
aS'2371'
p669
aF0.12357121105026936
aF0.0004715426214008099
aF0.751852227811344
aF0.038008886112012474
aF0.0028015182422381933
aF1.4106367574949052e-05
aF0.792339271601963
aF0.13439674778705024
aF-0.019992139625052602
aF0.0004728882273864818
aF3.380767446176103e-06
aF6.648364490807745e-07
aF0.12357121105026936
aF0.0004715426214008099
aF0.0028015182422381933
aF1.4106367574949052e-05
aF0.0008677621274547468
aF5.482400286155446e-06
aI0
aF33.58489003478071
aI19
aa(lp670
g617
ag28
aS'2411'
p671
aF0.12514161073070285
aF0.0008522729189550036
aF1.5165761286790154
aF0.282880066514991
aF0.0027429749467895626
aF1.6673442418617618e-05
aF0.08205292682872972
aF0.09422702338553213
aF-0.020015588759377798
aF0.0005500336454288836
aF4.031515319200541e-06
aF2.019182006021969e-06
aF0.12514161073070285
aF0.0008522729189550036
aF0.0027429749467895626
aF1.6673442418617618e-05
aF0.0008604259811464622
aF7.854507705234954e-06
aI0
aF30.77517629441162
aI19
aa(lp672
g617
ag28
aS'2451'
p673
aF0.1250188676108974
aF0.000536061638532838
aF1.36006912269424
aF0.1151050544129334
aF0.0027878270929601653
aF1.685962102346717e-05
aF0.13313307919706918
aF0.1033314250858908
aF-0.019773353690919634
aF0.0005393741604444262
aF3.5508685299856514e-06
aF8.485515791725739e-07
aF0.1250188676108974
aF0.000536061638532838
aF0.0027878270929601653
aF1.685962102346717e-05
aF0.0008736376247364734
aF6.476649087834906e-06
aI0
aF25.25045435926324
aI19
aa(lp674
g617
ag28
aS'2674'
p675
aF0.12174974989218437
aF0.0006892689058816619
aF0.6781169383546906
aF0.09017398751271927
aF0.0028958759183443762
aF1.979469413482802e-05
aF0.92085470347449
aF0.07233443385549027
aF-0.021803790310566652
aF0.0005954919699723729
aF3.738268950012058e-06
aF1.0839645885679648e-06
aF0.12174974989218437
aF0.0006892689058816619
aF0.0028958759183443762
aF1.979469413482802e-05
aF0.0008837673671049717
aF7.843888362087806e-06
aI0
aF22.141927861480845
aI19
aa(lp676
g617
ag28
aS'sum'
p677
aF0.12484301367461233
aF0.00012044296356434846
aF0.6907905809989661
aF0.014001602259068158
aF9.056028234088194e-05
aF1.1602335800858516e-07
aF0.9045350887591441
aF0.01424066869576307
aF-0.019940858253380114
aF0.00011349286437498788
aF1.3037169297958063e-07
aF6.889592383541025e-09
aF0.12484301367461233
aF0.00012044296356434846
aF9.056028234088194e-05
aF1.1602335800858516e-07
aF2.8339484487036774e-05
aF4.545070449059647e-08
aI0
aF46.805475590168406
aI19
aa.