(lp0
(lp1
S'Scan'
p2
aS'Type'
p3
aS'BCID'
p4
aS'sigma'
p5
aS'sigmaErr'
p6
aS'sigmaRatio'
p7
aS'sigmaRatio_Err'
p8
aS'Amp'
p9
aS'AmpErr'
p10
aS'Frac'
p11
aS'FracErr'
p12
aS'Mean'
p13
aS'MeanErr'
p14
aS'Const'
p15
aS'ConstErr'
p16
aS'CapSigma'
p17
aS'CapSigmaErr'
p18
aS'peak'
p19
aS'peakErr'
p20
aS'area'
p21
aS'areaErr'
p22
aS'fitStatus'
p23
aS'chi2'
p24
aS'ndof'
p25
aa(lp26
S'1'
p27
aS'X'
p28
aS'51'
p29
aF0.12653860997730607
aF0.0002520668597006677
aF1.9999999999353315
aF1.4958824030898497
aF96.1371117061233
aF0.29254581140769886
aF0.006120543345370544
aF0.002697847413453802
aF-0.004216220583839268
aF0.00029736695202212576
aF0.4339830286318971
aF0.03909979462628038
aF0.12653860997730607
aF0.0002520668597006677
aF96.1371117061233
aF0.29254581140769886
aF30.493274541582416
aF0.11090505440686807
aI0
aF41.82797799627815
aI19
aa(lp30
g27
ag28
aS'771'
p31
aF0.1254410145148454
aF0.00024290179267237683
aF1.999999999938364
aF1.4080415047347303
aF96.9026137413828
aF0.28830282464164725
aF0.012124318006814017
aF0.002760329621122687
aF-0.003530561713645839
aF0.0002838157630477228
aF0.40098487470477157
aF0.03874882469916924
aF0.1254410145148454
aF0.00024290179267237683
aF96.9026137413828
aF0.28830282464164725
aF30.469475846550566
aF0.10816140341471035
aI0
aF38.15047345390958
aI19
aa(lp32
g27
ag28
aS'1631'
p33
aF0.12398494479484583
aF0.0002442436851930784
aF1.0000167037023677
aF0.019596811406234704
aF99.35043755746808
aF0.28962431185303217
aF0.990001019256433
aF0.7559324811790018
aF-0.003681587664931376
aF0.0003017605813097466
aF0.5824300208378095
aF0.02059510726530067
aF0.12398494479484583
aF0.0002442436851930784
aF99.35043755746808
aF0.28962431185303217
aF30.87654310170284
aF0.10863523365445259
aI0
aF32.30698673156085
aI19
aa(lp34
g27
ag28
aS'2211'
p35
aF0.12406668374814242
aF0.00025639543517949577
aF0.5000000000005065
aF0.2725828489051285
aF98.70343976390286
aF0.3024909189004745
aF0.9922204535842096
aF0.0031235743709063235
aF-0.003029671814935574
aF0.00029279117919789923
aF0.5130396079402413
aF0.04649548331583542
aF0.12406668374814242
aF0.00025639543517949577
aF98.70343976390286
aF0.3024909189004745
aF30.695689696563896
aF0.11346139067400923
aI0
aF55.924223328805276
aI19
aa(lp36
g27
ag28
aS'2674'
p37
aF0.12086310764939513
aF0.00025045754773615455
aF1.999999996135851
aF1.2277247682573755
aF104.6141415743855
aF0.3401619945035961
aF0.005890101100062106
aF0.0031551765960323164
aF-0.0051930924383444274
aF0.0003012135446595038
aF0.5859865003828033
aF0.04543828134569172
aF0.12086310764939513
aF0.00025045754773615455
aF104.6141415743855
aF0.3401619945035961
aF31.693783476725248
aF0.1222041092492621
aI0
aF49.4524078485446
aI19
aa(lp38
g27
ag28
aS'sum'
p39
aF-0.00040971459658731486
aF0.00502725089401957
aF0.6261956727653571
aF0.09912802556502981
aF1.1
aF0.9873125120721375
aF0.7708593666254036
aF0.2828280882341563
aF-0.012121387662524784
aF74049.91136847009
aF0.3
aF0.0223113448048834
aF-0.00040971459658731486
aF0.00502725089401957
aF1.1
aF0.9873125120721375
aF-0.0011297024115682773
aF0.013898630581895083
aI0
aF2.2500000000000004
aI19
aa(lp40
S'10'
p41
aS'Y'
p42
aS'51'
p43
aF0.11281488266045499
aF0.00023500400184832718
aF1.0004455357965307
aF0.06454466553970156
aF99.32175182174636
aF0.2904662385707866
aF0.9995263738762631
aF0.7215602973788271
aF-0.005099760604888817
aF0.0002821043244172151
aF0.6168574235094606
aF0.021476689559491724
aF0.11281488266045499
aF0.00023500400184832718
aF99.32175182174636
aF0.2904662385707866
aF28.086699073676087
aF0.10084637745710076
aI0
aF23.193659929992915
aI19
aa(lp44
S'10'
p45
ag42
aS'771'
p46
aF0.1129378535296488
aF0.0002210882008464202
aF0.5000000000000014
aF0.9407350896250978
aF99.676501388925
aF0.29786656399060973
aF0.9985487059745108
aF0.0022938647384230237
aF-0.005294400865676159
aF0.0002713172263646779
aF0.507917745213299
aF0.0274682476641723
aF0.1129378535296488
aF0.0002210882008464202
aF99.676501388925
aF0.29786656399060973
aF28.217741430872465
aF0.10080634682082097
aI0
aF41.48479355945524
aI19
aa(lp47
S'10'
p48
ag42
aS'1631'
p49
aF0.11079932762112073
aF0.0002572834452258905
aF1.4910531274754373
aF0.5647005300774064
aF103.31944473696632
aF0.341336973817846
aF0.0081696466064905
aF0.02076474922289981
aF-0.005037212710299665
aF0.00027983744405240277
aF0.5759302289672512
aF0.02926625981097236
aF0.11079932762112073
aF0.0002572834452258905
aF103.31944473696632
aF0.341336973817846
aF28.69519118285538
aF0.1158747978076749
aI0
aF38.811786522697155
aI19
aa(lp50
S'10'
p51
ag42
aS'2211'
p52
aF0.11126711822813085
aF0.0002202266098946431
aF1.000068033336318
aF0.018750815861681425
aF101.86043718318722
aF0.293739040186324
aF0.9900801033555016
aF0.7557731044683376
aF-0.005141579782131033
aF0.0002715809252631447
aF0.6039440848694362
aF0.020626513362855092
aF0.11126711822813085
aF0.0002202266098946431
aF101.86043718318722
aF0.293739040186324
aF28.409416257976762
aF0.09936568395745458
aI0
aF35.873813391548566
aI19
aa(lp53
S'10'
p54
ag42
aS'2674'
p55
aF0.10921954986311168
aF0.00023219152117481197
aF0.9892593658250903
aF0.8854972255522842
aF107.1676137203884
aF0.3355428860347871
aF0.9999999999999999
aF0.9816022662981129
aF-0.005360373715665792
aF0.0002869812340638115
aF0.583440036049083
aF0.01903142989435097
aF0.10921954986311168
aF0.00023219152117481197
aF107.1676137203884
aF0.3355428860347871
aF29.33957894527195
aF0.11103680136942175
aI0
aF67.59119117885764
aI19
aa(lp56
S'10'
p57
ag42
aS'sum'
p58
aF0.051290241039535
aF1.04087765890135
aF0.6765534693050927
aF0.05590485200137406
aF0.4354741211881956
aF1.0830560470627104
aF0.8823132165323567
aF0.2823514347124562
aF-1.723566466940496
aF0.48666426339228774
aF0.3
aF0.02231134480489937
aF0.051290241039535
aF1.04087765890135
aF0.4354741211881956
aF1.0830560470627104
aF0.055986977915068875
aF1.1446932049252279
aI4
aF2.2500000000000004
aI19
aa(lp59
S'2'
p60
ag42
aS'51'
p61
aF0.116278205772109
aF0.00023320756660895824
aF1.000002742278127
aF0.006345773170231883
aF96.92515496001515
aF0.28226580518946776
aF0.3555949683113052
aF0.569366667688039
aF-0.006929261288153682
aF0.00028568408052926254
aF0.5840847860401421
aF0.020736985561761234
aF0.116278205772109
aF0.00023320756660895824
aF96.92515496001515
aF0.28226580518946776
aF28.250410313977135
aF0.09989371559418145
aI0
aF24.83272033664637
aI19
aa(lp62
g60
ag42
aS'771'
p63
aF0.11666816780144555
aF5.454304023458145e-08
aF1.0059950597015739
aF1.2040823332638895
aF97.03403086588197
aF6.974010672422537e-05
aF5.551115123125783e-17
aF0.0009653284218100189
aF-0.007166930833923684
aF8.824001652791708e-08
aF0.4944511833481532
aF4.950696331967874e-06
aF0.11666816780144555
aF5.454304023458145e-08
aF97.03403086588197
aF6.974010672422537e-05
aF28.37699374485931
aF2.4330144325744467e-05
aI0
aF46.57513099290669
aI19
aa(lp64
g60
ag42
aS'1631'
p65
aF0.11371481728875596
aF2.9159675472522344e-07
aF1.0010751013557102
aF0.9431948791541178
aF100.85173288577762
aF0.00039750615894718067
aF0.9999999999897125
aF0.6455915095230262
aF-0.006801524920100379
aF4.7083485241697104e-07
aF0.6328864677594113
aF3.5495410360630864e-05
aF0.11371481728875596
aF2.9159675472522344e-07
aF100.85173288577762
aF0.00039750615894718067
aF28.746856228978025
aF0.00013517408151134062
aI0
aF41.73519278575341
aI19
aa(lp66
g60
ag42
aS'2211'
p67
aF0.11482617153447713
aF3.3419201299153126e-07
aF1.001387367957883
aF0.8831988665544692
aF99.55313929774633
aF0.00043974465259566387
aF8.038680832100908e-12
aF0.6724045213108449
aF-0.006486630799869153
aF5.351278568047189e-07
aF0.5715487135745863
aF3.5085498134024284e-05
aF0.11482617153447713
aF3.3419201299153126e-07
aF99.55313929774633
aF0.00043974465259566387
aF28.654034459060217
aF0.00015157429194033375
aI0
aF44.13358455278483
aI19
aa(lp68
g60
ag42
aS'2674'
p69
aF0.11113222438991029
aF0.00023466005251842858
aF0.5000000000000107
aF0.027056201326415785
aF106.16952755341329
aF0.34817953777940147
aF0.9931593357745292
aF0.00255771962168605
aF-0.006593782760270685
aF0.00028940232082538993
aF0.5673991644258687
aF0.03162714497344615
aF0.11113222438991029
aF0.00023466005251842858
aF106.16952755341329
aF0.34817953777940147
aF29.575345454896823
aF0.11535714192412745
aI0
aF78.13198450275593
aI19
aa(lp70
g60
ag42
aS'sum'
p71
aF0.051290241039535
aF1.04087765890135
aF0.6765534693050927
aF0.05590485200137406
aF0.4354741211881956
aF1.0830560470627104
aF0.8823132165323567
aF0.2823514347124562
aF-1.723566466940496
aF0.48666426339228774
aF0.3
aF0.02231134480489937
aF0.051290241039535
aF1.04087765890135
aF0.4354741211881956
aF1.0830560470627104
aF0.055986977915068875
aF1.1446932049252279
aI4
aF2.2500000000000004
aI19
aa(lp72
S'3'
p73
ag42
aS'51'
p74
aF0.11564239565347359
aF0.00023092272632480208
aF1.0002804590721022
aF0.0523463250859354
aF96.69705543290227
aF0.28048774654520514
aF0.9993378237416035
aF0.7234394389414907
aF-0.0004321955864371051
aF0.0002829087453657931
aF0.6497364453281258
aF0.020903043109882447
aF0.11564239565347359
aF0.00023092272632480208
aF96.69705543290227
aF0.28048774654520514
aF28.029817074403514
aF0.09870899195856546
aI0
aF37.436102410470085
aI19
aa(lp75
g73
ag42
aS'771'
p76
aF0.11583933297946587
aF0.0002200797403874633
aF1.0000171713918125
aF0.014433974386712733
aF96.78573527757986
aF0.27130498810803516
aF0.9900020304980437
aF0.7559304482367005
aF-0.0002575696498460159
aF0.0002723544100516604
aF0.6020280574899793
aF0.018463471848741753
aF0.11583933297946587
aF0.0002200797403874633
aF96.78573527757986
aF0.27130498810803516
aF28.103301072025822
aF0.09516676273796454
aI0
aF28.169049847501935
aI19
aa(lp77
g73
ag42
aS'1631'
p78
aF0.11369063977762196
aF0.0002359164782644709
aF1.0000144620958153
aF0.015346935657670535
aF100.70923451903505
aF0.3042228285916124
aF0.9900011384627201
aF0.7559322415303676
aF-0.00015175762894125035
aF0.00028693717088482953
aF0.6675275103670095
aF0.020332934099029032
aF0.11369063977762196
aF0.0002359164782644709
aF100.70923451903505
aF0.3042228285916124
aF28.70013499813179
aF0.1051819291661908
aI0
aF26.630690173909407
aI19
aa(lp79
g73
ag42
aS'2211'
p80
aF0.11407682597649
aF0.00022551102626802401
aF0.9999930575940283
aF0.012943718894990408
aF99.96100278237111
aF0.28720029099763167
aF0.5685943421887711
aF0.7840434389010351
aF-0.0005596344307086338
aF0.0002747040677497403
aF0.6519390244893093
aF0.022833597936338212
aF0.11407682597649
aF0.00022551102626802401
aF99.96100278237111
aF0.28720029099763167
aF28.583668563195562
aF0.09968577726146685
aI0
aF28.54371292866199
aI19
aa(lp81
g73
ag42
aS'2674'
p82
aF0.11035789830152036
aF0.00023137097224007843
aF1.004708647649886
aF0.08707247903904447
aF106.33742215151341
aF0.33031364464198987
aF0.9999945917519579
aF0.7109125115177044
aF-8.17975858449592e-05
aF0.00028916912676546416
aF0.7343846553743516
aF0.021241143203615587
aF0.11035789830152036
aF0.00023137097224007843
aF106.33742215151341
aF0.33031364464198987
aF29.41572000750114
aF0.11023829985264602
aI0
aF33.05325495051562
aI19
aa(lp83
g73
ag42
aS'sum'
p84
aF0.051290241039535
aF1.04087765890135
aF0.6765534693050927
aF0.05590485200137406
aF0.4354741211881956
aF1.0830560470627104
aF0.8823132165323567
aF0.2823514347124562
aF-1.723566466940496
aF0.48666426339228774
aF0.3
aF0.02231134480489937
aF0.051290241039535
aF1.04087765890135
aF0.4354741211881956
aF1.0830560470627104
aF0.055986977915068875
aF1.1446932049252279
aI4
aF2.2500000000000004
aI19
aa(lp85
S'4'
p86
ag28
aS'51'
p87
aF0.126047034591387
aF4.168424198611214e-07
aF0.9927030418129729
aF0.8795866722848018
aF97.0043722901242
aF0.0004971296448346152
aF0.9999999999998659
aF0.03197860971925659
aF-0.00556695724119083
aF6.718708067068203e-07
aF0.6813541477431936
aF4.910725007079009e-05
aF0.126047034591387
aF4.168424198611214e-07
aF97.0043722901242
aF0.0004971296448346152
aF30.648828339943375
aF0.00018693336477995371
aI0
aF42.185127359627934
aI19
aa(lp88
g86
ag28
aS'771'
p89
aF0.1260930576565244
aF0.00023498864337692256
aF1.9999999999998952
aF0.11631392098314652
aF97.75683675235935
aF0.2741861907968257
aF0.019660663175437187
aF0.0014359394586594132
aF-0.005012345089317755
aF0.0002857900057786585
aF0.3000000000000698
aF0.02112550586131276
aF0.1260930576565244
aF0.00023498864337692256
aF97.75683675235935
aF0.2741861907968257
aF30.897849284190393
aF0.10404747198795551
aI0
aF81.21966665851335
aI19
aa(lp90
g86
ag28
aS'1631'
p91
aF0.12344754685929833
aF0.0002569190931466596
aF1.999999999687688
aF0.17193316661215463
aF101.61521429233508
aF0.318291133946353
aF0.009334093153257284
aF0.002839111145313822
aF-0.005496808468147482
aF0.0002975972241377845
aF0.5580474426974512
aF0.04379632989127813
aF0.12344754685929833
aF0.0002569190931466596
aF101.61521429233508
aF0.318291133946353
aF31.443518384033446
aF0.118249409980966
aI0
aF33.35685446596513
aI19
aa(lp92
g86
ag28
aS'2211'
p93
aF0.12419282873610846
aF0.0002502658032086414
aF1.999999986454902
aF0.9473061500714359
aF100.25638923391584
aF0.30454003034807187
aF0.010767532740323382
aF0.0030898642878595672
aF-0.005551884402560744
aF0.0002878180954577445
aF0.5404146689778822
aF0.04273425658157895
aF0.12419282873610846
aF0.0002502658032086414
aF100.25638923391584
aF0.30454003034807187
aF31.210340917737486
aF0.11376960290826367
aI0
aF33.51536662604275
aI19
aa(lp94
g86
ag28
aS'2674'
p95
aF0.12059000792043925
aF0.0002677507794609952
aF1.999999965140942
aF0.28720522067375587
aF106.73187767928718
aF0.34689689519194644
aF0.015338718228550652
aF0.0030576323157237018
aF-0.007613544105636828
aF0.00030575024687867167
aF0.5676924286132252
aF0.042240890228932404
aF0.12059000792043925
aF0.0002677507794609952
aF106.73187767928718
aF0.34689689519194644
aF32.262306120467976
aF0.1269902824599334
aI0
aF30.84289059992367
aI19
aa(lp96
g86
ag28
aS'sum'
p97
aF-0.00040971459658731486
aF0.00502725089401957
aF0.6261956727653571
aF0.09912802556502981
aF1.1
aF0.9873125120721375
aF0.7708593666254036
aF0.2828280882341563
aF-0.012121387662524784
aF74049.91136847009
aF0.3
aF0.0223113448048834
aF-0.00040971459658731486
aF0.00502725089401957
aF1.1
aF0.9873125120721375
aF-0.0011297024115682773
aF0.013898630581895083
aI0
aF2.2500000000000004
aI19
aa(lp98
S'5'
p99
ag28
aS'51'
p100
aF0.12569550066376942
aF0.00042573340745060263
aF0.5000000000038859
aF0.10748587588416003
aF97.51003832902605
aF0.36901088580252406
aF0.9849494117584103
aF0.007030232188764196
aF-0.008949449497942095
aF0.00029937746147593665
aF0.4146730107748179
aF0.1375864370290921
aF0.12569550066376942
aF0.00042573340745060263
aF97.51003832902605
aF0.36901088580252406
aF30.72267265123463
aF0.15603103482475286
aI0
aF31.30741187384364
aI13
aa(lp101
g99
ag28
aS'771'
p102
aF0.12379851622290969
aF0.00043629595649307437
aF0.5000000135924532
aF0.29151716807258543
aF97.96860273740677
aF0.3630625737367126
aF0.993810666764868
aF0.0068847294410961934
aF-0.009496525703863584
aF0.0002820299975408265
aF0.6532297958952833
aF0.1492176354770673
aF0.12379851622290969
aF0.00043629595649307437
aF97.96860273740677
aF0.3630625737367126
aF30.401309289951833
aF0.1554753783461582
aI0
aF41.58554087929716
aI13
aa(lp103
g99
ag28
aS'1631'
p104
aF0.12146097780096089
aF7.204986930120741e-07
aF0.9573323997528678
aF0.8190388044176767
aF101.57857499167207
aF0.0009141984409808401
aF0.9999999999999971
aF0.00937897057673609
aF-0.009552396717893638
aF1.1500638048104337e-06
aF0.8290990824578417
aF0.00012506262363032317
aF0.12146097780096089
aF7.204986930120741e-07
aF101.57857499167207
aF0.0009141984409808401
aF30.926361151046386
aF0.0003333544876480625
aI0
aF34.404875944659196
aI13
aa(lp105
g99
ag28
aS'2211'
p106
aF0.1231155688421773
aF0.000421769299200029
aF0.5000000102310598
aF0.25421176095615616
aF100.13914802533914
aF0.3733589109284594
aF0.9843232596045443
aF0.00691648023223751
aF-0.009284693923257582
aF0.000285577935622328
aF0.5037022900151645
aF0.14703665023809495
aF0.1231155688421773
aF0.000421769299200029
aF100.13914802533914
aF0.3733589109284594
aF30.903438362323925
aF0.1564736012799131
aI0
aF24.255438706794138
aI13
aa(lp107
g99
ag28
aS'2674'
p108
aF0.11903565690036036
aF0.0002777174092679212
aF0.999999527896235
aF0.01263068995650618
aF105.6736588536713
aF0.318446965899561
aF0.5746705156655072
aF0.596794998496156
aF-0.010884341754457042
aF0.0003024393664802873
aF0.9242472706856204
aF0.04368826394414882
aF0.11903565690036036
aF0.0002777174092679212
aF105.6736588536713
aF0.318446965899561
aF31.530710121910083
aF0.12016601346706027
aI0
aF19.4770842113311
aI13
aa(lp109
g99
ag28
aS'sum'
p110
aF0.617992186308758
aF18185.3251567869
aF0.5194046636571623
aF0.03011494570640194
aF0.4095688153933945
aF1.1565906995400483
aF0.999755867159996
aF0.260633268281989
aF9.28988095156892
aF2958.291248666394
aF0.3
aF0.030668302499464995
aF0.617992186308758
aF18185.3251567869
aF0.4095688153933945
aF1.1565906995400483
aF0.6344535039358615
aF18669.72362220064
aI0
aF1.7100000000000004
aI13
aa(lp111
S'6'
p112
ag42
aS'51'
p113
aF0.11453503106166912
aF0.0002628204667731248
aF0.9999910394654241
aF0.02861297700977744
aF97.06817626545657
aF0.29025365885681254
aF0.9997445839450749
aF0.708453675425404
aF-0.006979065167514938
aF0.0002910743711599574
aF0.5583038704166451
aF0.03451002651753038
aF0.11453503106166912
aF0.0002628204667731248
aF97.06817626545657
aF0.29025365885681254
aF27.867957671662506
aF0.10503982120969037
aI0
aF18.06948667470805
aI13
aa(lp114
g112
ag42
aS'771'
p115
aF0.11391589333706431
aF1.3554350629046628e-06
aF1.0000347735016997
aF1.1118900980213087
aF97.87310003525866
aF0.001837400074471418
aF0.9999999879737624
aF0.5670484727814681
aF-0.007102779969031493
aF2.2059110990654516e-06
aF0.5594849733832588
aF0.00021778927033389017
aF0.11391589333706431
aF1.3554350629046628e-06
aF97.87310003525866
aF0.001837400074471418
aF27.94715469356983
aF0.0006211641854649426
aI0
aF27.058098931056932
aI13
aa(lp116
g112
ag42
aS'1631'
p117
aF0.11191641282675066
aF0.0002506229881156539
aF0.9999988600755549
aF0.032131723977592785
aF101.1380398371761
aF0.3131638815183564
aF0.9946527989512814
aF0.744775694817444
aF-0.007326721999887003
aF0.00029089701679097446
aF0.5849488529932587
aF0.03207467377644757
aF0.11191641282675066
aF0.0002506229881156539
aF101.1380398371761
aF0.3131638815183564
aF28.372542031684603
aF0.1084206255118167
aI0
aF24.966869488366978
aI13
aa(lp118
g112
ag42
aS'2211'
p119
aF0.11327378983310403
aF0.000279912435134185
aF0.5000000000005855
aF0.18284792689664253
aF99.96073717791344
aF0.3446530066158786
aF0.9937707233216355
aF0.004693435912037025
aF-0.0071786579310584245
aF0.0002789865078647725
aF0.41016059478820505
aF0.08327288641872066
aF0.11327378983310403
aF0.000279912435134185
aF99.96073717791344
aF0.3446530066158786
aF28.382380336472483
aF0.12039719614755372
aI0
aF36.05455282519173
aI13
aa(lp120
g112
ag42
aS'2674'
p121
aF0.10974555160258043
aF2.001575339653172e-05
aF0.9999980266138755
aF0.9939426646913725
aF106.30497141269029
aF0.030694827444619932
aF0.9975157993890261
aF0.9953182328864046
aF-0.007454573538353101
aF3.281227124948233e-05
aF0.5938513235522398
aF0.0031007340707626674
aF0.10974555160258043
aF2.001575339653172e-05
aF106.30497141269029
aF0.030694827444619932
aF29.243573065364025
aF0.009987279192718556
aI0
aF36.74804803331634
aI13
aa(lp122
g112
ag42
aS'sum'
p123
aF0.08804898197662943
aF3256.954814665747
aF0.5195180674262071
aF0.039707523189889175
aF0.41776811352683185
aF1.1517154615866125
aF0.9900000000258975
aF0.27416408528070424
aF2.4597041935120574
aF0.5129102485590663
aF0.3
aF0.030668302489815086
aF0.08804898197662943
aF3256.954814665747
aF0.41776811352683185
aF1.1517154615866125
aF0.09220395757832639
aF3410.6484556481864
aI0
aF1.7100000000000004
aI13
aa(lp124
S'7'
p125
ag28
aS'51'
p126
aF0.12698378269553975
aF0.0004834238447319947
aF0.5000000000001067
aF0.26374364808701883
aF97.76214034418238
aF0.3809625717275509
aF0.9908440344683869
aF0.00766547624668007
aF0.018045190268751947
aF0.00029647116148427016
aF0.5295498194670112
aF0.16109495755376815
aF0.12698378269553975
aF0.0004834238447319947
aF97.76214034418238
aF0.3809625717275509
aF31.117800732539084
aF0.16952302298227806
aI0
aF27.113354206159975
aI13
aa(lp127
g125
ag28
aS'771'
p128
aF0.12635745882466107
aF0.0004418352895137606
aF0.5000000000045781
aF0.33121161925830317
aF97.6878507698413
aF0.3602348618030291
aF0.9894757190989147
aF0.007009095338231575
aF0.018247235094250053
aF0.00028703842777105527
aF0.4982742966448861
aF0.14541988416050244
aF0.12635745882466107
aF0.0004418352895137606
aF97.6878507698413
aF0.3602348618030291
aF30.94078814834871
aF0.15723722334930051
aI0
aF26.120409190271577
aI13
aa(lp129
g125
ag28
aS'1631'
p130
aF0.12473225938781778
aF0.0003046130485056147
aF1.9031318181905705
aF0.1772817827536588
aF102.11188783421183
aF0.32826908541745325
aF0.028145427278937096
aF0.010134808439144855
aF0.018499349638079303
aF0.0003039068536694295
aF0.3000000000451904
aF0.16654941111221008
aF0.12473225938781778
aF0.0003046130485056147
aF102.11188783421183
aF0.32826908541745325
aF31.92603819053851
aF0.12889166891237558
aI0
aF18.62237898206461
aI13
aa(lp131
g125
ag28
aS'2211'
p132
aF0.12504352879941716
aF0.0004246078513597207
aF1.9999999999998193
aF0.9317370423577125
aF100.43918734564207
aF0.3739263596249245
aF0.022328201240977785
aF0.007155196591515811
aF0.018355677864055918
aF0.0002888625638753867
aF0.36561493003832074
aF0.1382899851129357
aF0.12504352879941716
aF0.0004246078513597207
aF100.43918734564207
aF0.3739263596249245
aF31.481422332090688
aF0.15863240486286906
aI0
aF32.53868392423422
aI13
aa(lp133
g125
ag28
aS'2674'
p134
aF0.12118186184966591
aF0.00027633786944463275
aF1.0000003352948086
aF0.05311000253305298
aF105.87073229971998
aF0.31751580449650874
aF0.993425522582456
aF0.7481531930661585
aF0.019507403050582725
aF0.00030502400526596555
aF0.8301426121766977
aF0.0371983841055179
aF0.12118186184966591
aF0.00027633786944463275
aF105.87073229971998
aF0.31751580449650874
aF32.15906933343321
aF0.12116146343698148
aI0
aF25.733633197779575
aI13
aa(lp135
g125
ag28
aS'sum'
p136
aF-0.0033606579801347554
aF0.020777675995339133
aF1.0097901839581946
aF0.36250995713828543
aF0.22057456396111913
aF1.3713429113016233
aF0.9999659407518664
aF0.2568216066416821
aF-0.019669374260706297
aF0.5129162068339049
aF0.3
aF0.025319424807047717
aF-0.0033606579801347554
aF0.020777675995339133
aF0.22057456396111913
aF1.3713429113016233
aF-0.001858102550185395
aF0.01629182318248406
aI0
aF1.71000000457996
aI13
aa(lp137
S'8'
p138
ag42
aS'51'
p139
aF0.11401861238787575
aF4.726115564866875e-06
aF1.0000020964944374
aF0.7627864844504767
aF97.36179179926275
aF0.006241896642436018
aF0.999960621605976
aF0.9924280195126319
aF0.009222174155299929
aF7.60693815082349e-06
aF0.6979565211363717
aF0.000772535477071068
aF0.11401861238787575
aF4.726115564866875e-06
aF97.36179179926275
aF0.006241896642436018
aF27.82622185189006
aF0.0021243400555791057
aI0
aF36.044657250731476
aI13
aa(lp140
g138
ag42
aS'771'
p141
aF0.11343064474595563
aF1.1866368007944572e-05
aF1.0000051588802994
aF0.9526832214547405
aF98.31030459945767
aF0.01634495192923424
aF0.9995506395930045
aF0.7518631490595685
aF0.00970674745332172
aF1.9346204384169126e-05
aF0.664567929682989
aF0.001926525063508433
aF0.11343064474595563
aF1.1866368007944572e-05
aF98.31030459945767
aF0.01634495192923424
aF27.952417639631363
aF0.005490779303465898
aI0
aF59.50595006324654
aI13
aa(lp142
g138
ag42
aS'1631'
p143
aF0.11189462321502715
aF1.2960424062578846e-05
aF0.9999950664520274
aF0.97254557049442
aF101.79952540496271
aF0.018402564446560632
aF0.9999987011594156
aF0.7728386081922516
aF0.009148397638923975
aF2.0921298559447135e-05
aF0.6861211647721319
aF0.0020128420232503053
aF0.11189462321502715
aF1.2960424062578846e-05
aF101.79952540496271
aF0.018402564446560632
aF28.552550326816597
aF0.006130135921680266
aI0
aF40.60320146313921
aI13
aa(lp144
g138
ag42
aS'2211'
p145
aF0.11241576802231001
aF5.730188709273601e-06
aF1.0000002575819686
aF0.38892560074064275
aF100.63218662457578
aF0.008094017205579007
aF0.9988154249187082
aF0.7544614945690494
aF0.00955944987698765
aF9.320035064994342e-06
aF0.6446175749438963
aF0.0010342740667918515
aF0.11241576802231001
aF5.730188709273601e-06
aF100.63218662457578
aF0.008094017205579007
aF28.3565946827768
aF0.0027002152426861825
aI0
aF36.749388970053694
aI13
aa(lp146
g138
ag42
aS'2674'
p147
aF0.10870340869533779
aF7.64970749644072e-06
aF1.0000003196379934
aF0.9836645661355519
aF106.24472800294596
aF0.011873282207091052
aF0.9996791759558288
aF0.6542077540475746
aF0.009680977806709415
aF1.2449315280925132e-05
aF0.8454038779702482
aF0.001308661033620817
aF0.10870340869533779
aF7.64970749644072e-06
aF106.24472800294596
aF0.011873282207091052
aF28.949461255918962
aF0.003823218247204416
aI0
aF41.51346601526592
aI13
aa(lp148
g138
ag42
aS'sum'
p149
aF-0.0034789388867522406
aF0.023567153666258625
aF1.0110062610768344
aF0.36276952910091625
aF0.22057406648028074
aF1.3713382581859779
aF0.99996979181565
aF0.256883065950283
aF0.02934719068859569
aF0.5129099924307474
aF0.3
aF0.025319425120368822
aF-0.0034789388867522406
aF0.023567153666258625
aF0.22057406648028074
aF1.3713382581859779
aF-0.0019234955405457866
aF0.017686017545838945
aI0
aF1.710000002177802
aI13
aa(lp150
S'9'
p151
ag28
aS'51'
p152
aF0.1270172132527527
aF0.000579901217789111
aF1.8831683281497709
aF1.0903839178611257
aF99.0122426757152
aF0.30305573246440787
aF0.02151319446398714
aF0.012546654402875529
aF-0.019649802760015437
aF0.0002944306809089936
aF0.4398994984016569
aF0.10552285913401699
aF0.1270172132527527
aF0.000579901217789111
aF99.0122426757152
aF0.30305573246440787
aF31.52400675586416
aF0.1732746093952769
aI0
aF24.56440449165772
aI19
aa(lp153
g151
ag28
aS'771'
p154
aF0.12697787154072085
aF0.00026678816703870986
aF1.8699249583486848
aF0.09913833288384077
aF99.54562439005787
aF0.29084937109120546
aF0.032848366784140104
aF0.007548691234720656
aF-0.019349942353886682
aF0.0002881953375516663
aF0.30000000000024596
aF0.13081968488272627
aF0.12697787154072085
aF0.00026678816703870986
aF99.54562439005787
aF0.29084937109120546
aF31.684010763468383
aF0.11402367019639115
aI0
aF39.05802947481203
aI19
aa(lp155
g151
ag28
aS'1631'
p156
aF0.12457732087051653
aF0.0003822352905092801
aF1.6158655183193904
aF0.22022303190204728
aF102.41525662981286
aF0.3307506887787284
aF0.03589268698037407
aF0.022010438556568507
aF-0.019554022127748368
aF0.0002958676258503721
aF0.46628153075691564
aF0.05199951350894766
aF0.12457732087051653
aF0.0003822352905092801
aF102.41525662981286
aF0.3307506887787284
aF31.981113343940947
aF0.14246468893679481
aI0
aF30.11664640779212
aI19
aa(lp157
g151
ag28
aS'2211'
p158
aF0.1254366910509842
aF0.0004180126758101156
aF1.623893208016833
aF0.20149816171633605
aF100.81958434272552
aF0.3089766801420524
aF0.049742287227738546
aF0.02722049199280227
aF-0.01982919428058356
aF0.00029181108618747697
aF0.4066975139681944
aF0.06145670747395035
aF0.1254366910509842
aF0.0004180126758101156
aF100.81958434272552
aF0.3089766801420524
aF31.70001194248372
aF0.14351867150808909
aI0
aF29.902597948737373
aI19
aa(lp159
g151
ag28
aS'2674'
p160
aF0.12191080526595235
aF0.00044423304802790195
aF1.8366579173437674
aF0.2198876812619699
aF107.74783009200054
aF0.35009022127957934
aF0.03544537733284209
aF0.014080207657919203
aF-0.02140914404141119
aF0.00030694322649229476
aF0.4385199970513317
aF0.07250671101645911
aF0.12191080526595235
aF0.00044423304802790195
aF107.74783009200054
aF0.35009022127957934
aF32.92612835861161
aF0.16074966248079783
aI0
aF47.80702615184622
aI19
aa(lp161
g151
ag28
aS'sum'
p162
aF-0.00040971459658731486
aF0.00502725089401957
aF0.6261956727653571
aF0.09912802556502981
aF1.1
aF0.9873125120721375
aF0.7708593666254036
aF0.2828280882341563
aF-0.012121387662524784
aF74049.91136847009
aF0.3
aF0.0223113448048834
aF-0.00040971459658731486
aF0.00502725089401957
aF1.1
aF0.9873125120721375
aF-0.0011297024115682773
aF0.013898630581895083
aI0
aF2.2500000000000004
aI19
aa.